
a.out:     file format elf32-littleriscv


Disassembly of section .text:

00010074 <main>:
   10074:	7179                	addi	sp,sp,-48
   10076:	65f9                	lui	a1,0x1e
   10078:	4641                	li	a2,16
   1007a:	8d458593          	addi	a1,a1,-1836 # 1d8d4 <__clzsi2+0x46>
   1007e:	850a                	mv	a0,sp
   10080:	d422                	sw	s0,40(sp)
   10082:	d226                	sw	s1,36(sp)
   10084:	d04a                	sw	s2,32(sp)
   10086:	ce4e                	sw	s3,28(sp)
   10088:	cc52                	sw	s4,24(sp)
   1008a:	d606                	sw	ra,44(sp)
   1008c:	848a                	mv	s1,sp
   1008e:	2245                	jal	1022e <memcpy>
   10090:	890a                	mv	s2,sp
   10092:	4401                	li	s0,0
   10094:	69f9                	lui	s3,0x1e
   10096:	4a11                	li	s4,4
   10098:	00092603          	lw	a2,0(s2)
   1009c:	0405                	addi	s0,s0,1
   1009e:	85a2                	mv	a1,s0
   100a0:	8c898513          	addi	a0,s3,-1848 # 1d8c8 <__clzsi2+0x3a>
   100a4:	2e2d                	jal	103de <printf>
   100a6:	0911                	addi	s2,s2,4
   100a8:	ff4418e3          	bne	s0,s4,10098 <main+0x24>
   100ac:	850a                	mv	a0,sp
   100ae:	20c1                	jal	1016e <Round>
   100b0:	4401                	li	s0,0
   100b2:	4911                	li	s2,4
   100b4:	4090                	lw	a2,0(s1)
   100b6:	0405                	addi	s0,s0,1
   100b8:	85a2                	mv	a1,s0
   100ba:	8c898513          	addi	a0,s3,-1848
   100be:	2605                	jal	103de <printf>
   100c0:	0491                	addi	s1,s1,4
   100c2:	ff2419e3          	bne	s0,s2,100b4 <main+0x40>
   100c6:	50b2                	lw	ra,44(sp)
   100c8:	5422                	lw	s0,40(sp)
   100ca:	5492                	lw	s1,36(sp)
   100cc:	5902                	lw	s2,32(sp)
   100ce:	49f2                	lw	s3,28(sp)
   100d0:	4a62                	lw	s4,24(sp)
   100d2:	4501                	li	a0,0
   100d4:	6145                	addi	sp,sp,48
   100d6:	8082                	ret

000100d8 <register_fini>:
   100d8:	00000793          	li	a5,0
   100dc:	c791                	beqz	a5,100e8 <register_fini+0x10>
   100de:	6549                	lui	a0,0x12
   100e0:	76650513          	addi	a0,a0,1894 # 12766 <__libc_fini_array>
   100e4:	1d60206f          	j	122ba <atexit>
   100e8:	8082                	ret

000100ea <_start>:
   100ea:	0000f197          	auipc	gp,0xf
   100ee:	72618193          	addi	gp,gp,1830 # 1f810 <__global_pointer$>
   100f2:	1cc18513          	addi	a0,gp,460 # 1f9dc <__malloc_max_total_mem>
   100f6:	22818613          	addi	a2,gp,552 # 1fa38 <__BSS_END__>
   100fa:	8e09                	sub	a2,a2,a0
   100fc:	4581                	li	a1,0
   100fe:	2c21                	jal	10316 <memset>
   10100:	00002517          	auipc	a0,0x2
   10104:	1ba50513          	addi	a0,a0,442 # 122ba <atexit>
   10108:	c519                	beqz	a0,10116 <_start+0x2c>
   1010a:	00002517          	auipc	a0,0x2
   1010e:	65c50513          	addi	a0,a0,1628 # 12766 <__libc_fini_array>
   10112:	1a8020ef          	jal	ra,122ba <atexit>
   10116:	205d                	jal	101bc <__libc_init_array>
   10118:	4502                	lw	a0,0(sp)
   1011a:	004c                	addi	a1,sp,4
   1011c:	4601                	li	a2,0
   1011e:	3f99                	jal	10074 <main>
   10120:	a8bd                	j	1019e <exit>

00010122 <__do_global_dtors_aux>:
   10122:	1141                	addi	sp,sp,-16
   10124:	c422                	sw	s0,8(sp)
   10126:	1e41c783          	lbu	a5,484(gp) # 1f9f4 <completed.1>
   1012a:	c606                	sw	ra,12(sp)
   1012c:	ef99                	bnez	a5,1014a <__do_global_dtors_aux+0x28>
   1012e:	00000793          	li	a5,0
   10132:	cb89                	beqz	a5,10144 <__do_global_dtors_aux+0x22>
   10134:	0001f537          	lui	a0,0x1f
   10138:	00050513          	mv	a0,a0
   1013c:	00000097          	auipc	ra,0x0
   10140:	000000e7          	jalr	zero # 0 <main-0x10074>
   10144:	4785                	li	a5,1
   10146:	1ef18223          	sb	a5,484(gp) # 1f9f4 <completed.1>
   1014a:	40b2                	lw	ra,12(sp)
   1014c:	4422                	lw	s0,8(sp)
   1014e:	0141                	addi	sp,sp,16
   10150:	8082                	ret

00010152 <frame_dummy>:
   10152:	00000793          	li	a5,0
   10156:	cb99                	beqz	a5,1016c <frame_dummy+0x1a>
   10158:	0001f537          	lui	a0,0x1f
   1015c:	1e818593          	addi	a1,gp,488 # 1f9f8 <object.0>
   10160:	00050513          	mv	a0,a0
   10164:	00000317          	auipc	t1,0x0
   10168:	00000067          	jr	zero # 0 <main-0x10074>
   1016c:	8082                	ret

0001016e <Round>:
   1016e:	415c                	lw	a5,4(a0)
   10170:	4118                	lw	a4,0(a0)
   10172:	00e7f6fb          	add.rol5.xor	a3,a5,a4
   10176:	80e797b3          	add.rol16	a5,a5,a4
   1017a:	4558                	lw	a4,12(a0)
   1017c:	450c                	lw	a1,8(a0)
   1017e:	00b70633          	add	a2,a4,a1
   10182:	80b7777b          	add.rol8.xor	a4,a4,a1
   10186:	c0c6f5fb          	add.rol7.xor	a1,a3,a2
   1018a:	c14c                	sw	a1,4(a0)
   1018c:	80c696b3          	add.rol16	a3,a3,a2
   10190:	c514                	sw	a3,8(a0)
   10192:	e0f776fb          	add.rol13.xor	a3,a4,a5
   10196:	c554                	sw	a3,12(a0)
   10198:	97ba                	add	a5,a5,a4
   1019a:	c11c                	sw	a5,0(a0)
   1019c:	8082                	ret

0001019e <exit>:
   1019e:	1141                	addi	sp,sp,-16
   101a0:	4581                	li	a1,0
   101a2:	c422                	sw	s0,8(sp)
   101a4:	c606                	sw	ra,12(sp)
   101a6:	842a                	mv	s0,a0
   101a8:	054020ef          	jal	ra,121fc <__call_exitprocs>
   101ac:	1b81a503          	lw	a0,440(gp) # 1f9c8 <_global_impure_ptr>
   101b0:	5d5c                	lw	a5,60(a0)
   101b2:	c391                	beqz	a5,101b6 <exit+0x18>
   101b4:	9782                	jalr	a5
   101b6:	8522                	mv	a0,s0
   101b8:	4bb0a0ef          	jal	ra,1ae72 <_exit>

000101bc <__libc_init_array>:
   101bc:	1141                	addi	sp,sp,-16
   101be:	c422                	sw	s0,8(sp)
   101c0:	c04a                	sw	s2,0(sp)
   101c2:	0001f437          	lui	s0,0x1f
   101c6:	0001f937          	lui	s2,0x1f
   101ca:	00440793          	addi	a5,s0,4 # 1f004 <__init_array_start>
   101ce:	00490913          	addi	s2,s2,4 # 1f004 <__init_array_start>
   101d2:	40f90933          	sub	s2,s2,a5
   101d6:	c606                	sw	ra,12(sp)
   101d8:	c226                	sw	s1,4(sp)
   101da:	40295913          	srai	s2,s2,0x2
   101de:	00090b63          	beqz	s2,101f4 <__libc_init_array+0x38>
   101e2:	00440413          	addi	s0,s0,4
   101e6:	4481                	li	s1,0
   101e8:	401c                	lw	a5,0(s0)
   101ea:	0485                	addi	s1,s1,1
   101ec:	0411                	addi	s0,s0,4
   101ee:	9782                	jalr	a5
   101f0:	fe991ce3          	bne	s2,s1,101e8 <__libc_init_array+0x2c>
   101f4:	0001f437          	lui	s0,0x1f
   101f8:	0001f937          	lui	s2,0x1f
   101fc:	00440793          	addi	a5,s0,4 # 1f004 <__init_array_start>
   10200:	00c90913          	addi	s2,s2,12 # 1f00c <__do_global_dtors_aux_fini_array_entry>
   10204:	40f90933          	sub	s2,s2,a5
   10208:	40295913          	srai	s2,s2,0x2
   1020c:	00090b63          	beqz	s2,10222 <__libc_init_array+0x66>
   10210:	00440413          	addi	s0,s0,4
   10214:	4481                	li	s1,0
   10216:	401c                	lw	a5,0(s0)
   10218:	0485                	addi	s1,s1,1
   1021a:	0411                	addi	s0,s0,4
   1021c:	9782                	jalr	a5
   1021e:	fe991ce3          	bne	s2,s1,10216 <__libc_init_array+0x5a>
   10222:	40b2                	lw	ra,12(sp)
   10224:	4422                	lw	s0,8(sp)
   10226:	4492                	lw	s1,4(sp)
   10228:	4902                	lw	s2,0(sp)
   1022a:	0141                	addi	sp,sp,16
   1022c:	8082                	ret

0001022e <memcpy>:
   1022e:	00b547b3          	xor	a5,a0,a1
   10232:	8b8d                	andi	a5,a5,3
   10234:	00c508b3          	add	a7,a0,a2
   10238:	eba1                	bnez	a5,10288 <memcpy+0x5a>
   1023a:	478d                	li	a5,3
   1023c:	04c7f663          	bgeu	a5,a2,10288 <memcpy+0x5a>
   10240:	00357793          	andi	a5,a0,3
   10244:	872a                	mv	a4,a0
   10246:	e7cd                	bnez	a5,102f0 <memcpy+0xc2>
   10248:	ffc8f613          	andi	a2,a7,-4
   1024c:	40e606b3          	sub	a3,a2,a4
   10250:	02000793          	li	a5,32
   10254:	02000293          	li	t0,32
   10258:	04d7c463          	blt	a5,a3,102a0 <memcpy+0x72>
   1025c:	86ae                	mv	a3,a1
   1025e:	87ba                	mv	a5,a4
   10260:	02c77163          	bgeu	a4,a2,10282 <memcpy+0x54>
   10264:	0006a803          	lw	a6,0(a3)
   10268:	0791                	addi	a5,a5,4
   1026a:	0691                	addi	a3,a3,4
   1026c:	ff07ae23          	sw	a6,-4(a5)
   10270:	fec7eae3          	bltu	a5,a2,10264 <memcpy+0x36>
   10274:	fff60793          	addi	a5,a2,-1
   10278:	8f99                	sub	a5,a5,a4
   1027a:	9bf1                	andi	a5,a5,-4
   1027c:	0791                	addi	a5,a5,4
   1027e:	973e                	add	a4,a4,a5
   10280:	95be                	add	a1,a1,a5
   10282:	01176663          	bltu	a4,a7,1028e <memcpy+0x60>
   10286:	8082                	ret
   10288:	872a                	mv	a4,a0
   1028a:	ff157ee3          	bgeu	a0,a7,10286 <memcpy+0x58>
   1028e:	0005c783          	lbu	a5,0(a1)
   10292:	0705                	addi	a4,a4,1
   10294:	0585                	addi	a1,a1,1
   10296:	fef70fa3          	sb	a5,-1(a4)
   1029a:	ff176ae3          	bltu	a4,a7,1028e <memcpy+0x60>
   1029e:	8082                	ret
   102a0:	41d4                	lw	a3,4(a1)
   102a2:	4ddc                	lw	a5,28(a1)
   102a4:	0005af83          	lw	t6,0(a1)
   102a8:	0085af03          	lw	t5,8(a1)
   102ac:	00c5ae83          	lw	t4,12(a1)
   102b0:	0105ae03          	lw	t3,16(a1)
   102b4:	0145a303          	lw	t1,20(a1)
   102b8:	0185a803          	lw	a6,24(a1)
   102bc:	c354                	sw	a3,4(a4)
   102be:	5194                	lw	a3,32(a1)
   102c0:	01f72023          	sw	t6,0(a4)
   102c4:	01e72423          	sw	t5,8(a4)
   102c8:	01d72623          	sw	t4,12(a4)
   102cc:	01c72823          	sw	t3,16(a4)
   102d0:	00672a23          	sw	t1,20(a4)
   102d4:	01072c23          	sw	a6,24(a4)
   102d8:	cf5c                	sw	a5,28(a4)
   102da:	02470713          	addi	a4,a4,36
   102de:	40e607b3          	sub	a5,a2,a4
   102e2:	fed72e23          	sw	a3,-4(a4)
   102e6:	02458593          	addi	a1,a1,36
   102ea:	faf2cbe3          	blt	t0,a5,102a0 <memcpy+0x72>
   102ee:	b7bd                	j	1025c <memcpy+0x2e>
   102f0:	0005c683          	lbu	a3,0(a1)
   102f4:	0705                	addi	a4,a4,1
   102f6:	00377793          	andi	a5,a4,3
   102fa:	fed70fa3          	sb	a3,-1(a4)
   102fe:	0585                	addi	a1,a1,1
   10300:	d7a1                	beqz	a5,10248 <memcpy+0x1a>
   10302:	0005c683          	lbu	a3,0(a1)
   10306:	0705                	addi	a4,a4,1
   10308:	00377793          	andi	a5,a4,3
   1030c:	fed70fa3          	sb	a3,-1(a4)
   10310:	0585                	addi	a1,a1,1
   10312:	fff9                	bnez	a5,102f0 <memcpy+0xc2>
   10314:	bf15                	j	10248 <memcpy+0x1a>

00010316 <memset>:
   10316:	433d                	li	t1,15
   10318:	872a                	mv	a4,a0
   1031a:	02c37363          	bgeu	t1,a2,10340 <memset+0x2a>
   1031e:	00f77793          	andi	a5,a4,15
   10322:	efbd                	bnez	a5,103a0 <memset+0x8a>
   10324:	e5ad                	bnez	a1,1038e <memset+0x78>
   10326:	ff067693          	andi	a3,a2,-16
   1032a:	8a3d                	andi	a2,a2,15
   1032c:	96ba                	add	a3,a3,a4
   1032e:	c30c                	sw	a1,0(a4)
   10330:	c34c                	sw	a1,4(a4)
   10332:	c70c                	sw	a1,8(a4)
   10334:	c74c                	sw	a1,12(a4)
   10336:	0741                	addi	a4,a4,16
   10338:	fed76be3          	bltu	a4,a3,1032e <memset+0x18>
   1033c:	e211                	bnez	a2,10340 <memset+0x2a>
   1033e:	8082                	ret
   10340:	40c306b3          	sub	a3,t1,a2
   10344:	068a                	slli	a3,a3,0x2
   10346:	00000297          	auipc	t0,0x0
   1034a:	9696                	add	a3,a3,t0
   1034c:	00a68067          	jr	10(a3)
   10350:	00b70723          	sb	a1,14(a4)
   10354:	00b706a3          	sb	a1,13(a4)
   10358:	00b70623          	sb	a1,12(a4)
   1035c:	00b705a3          	sb	a1,11(a4)
   10360:	00b70523          	sb	a1,10(a4)
   10364:	00b704a3          	sb	a1,9(a4)
   10368:	00b70423          	sb	a1,8(a4)
   1036c:	00b703a3          	sb	a1,7(a4)
   10370:	00b70323          	sb	a1,6(a4)
   10374:	00b702a3          	sb	a1,5(a4)
   10378:	00b70223          	sb	a1,4(a4)
   1037c:	00b701a3          	sb	a1,3(a4)
   10380:	00b70123          	sb	a1,2(a4)
   10384:	00b700a3          	sb	a1,1(a4)
   10388:	00b70023          	sb	a1,0(a4)
   1038c:	8082                	ret
   1038e:	0ff5f593          	zext.b	a1,a1
   10392:	00859693          	slli	a3,a1,0x8
   10396:	8dd5                	or	a1,a1,a3
   10398:	01059693          	slli	a3,a1,0x10
   1039c:	8dd5                	or	a1,a1,a3
   1039e:	b761                	j	10326 <memset+0x10>
   103a0:	00279693          	slli	a3,a5,0x2
   103a4:	00000297          	auipc	t0,0x0
   103a8:	9696                	add	a3,a3,t0
   103aa:	8286                	mv	t0,ra
   103ac:	fa8680e7          	jalr	-88(a3)
   103b0:	8096                	mv	ra,t0
   103b2:	17c1                	addi	a5,a5,-16
   103b4:	8f1d                	sub	a4,a4,a5
   103b6:	963e                	add	a2,a2,a5
   103b8:	f8c374e3          	bgeu	t1,a2,10340 <memset+0x2a>
   103bc:	b7a5                	j	10324 <memset+0xe>

000103be <_printf_r>:
   103be:	7139                	addi	sp,sp,-64
   103c0:	d432                	sw	a2,40(sp)
   103c2:	d636                	sw	a3,44(sp)
   103c4:	d83a                	sw	a4,48(sp)
   103c6:	da3e                	sw	a5,52(sp)
   103c8:	dc42                	sw	a6,56(sp)
   103ca:	de46                	sw	a7,60(sp)
   103cc:	862e                	mv	a2,a1
   103ce:	450c                	lw	a1,8(a0)
   103d0:	1034                	addi	a3,sp,40
   103d2:	ce06                	sw	ra,28(sp)
   103d4:	c636                	sw	a3,12(sp)
   103d6:	280d                	jal	10408 <_vfprintf_r>
   103d8:	40f2                	lw	ra,28(sp)
   103da:	6121                	addi	sp,sp,64
   103dc:	8082                	ret

000103de <printf>:
   103de:	1c01a303          	lw	t1,448(gp) # 1f9d0 <_impure_ptr>
   103e2:	7139                	addi	sp,sp,-64
   103e4:	d432                	sw	a2,40(sp)
   103e6:	d636                	sw	a3,44(sp)
   103e8:	d22e                	sw	a1,36(sp)
   103ea:	d83a                	sw	a4,48(sp)
   103ec:	da3e                	sw	a5,52(sp)
   103ee:	dc42                	sw	a6,56(sp)
   103f0:	de46                	sw	a7,60(sp)
   103f2:	00832583          	lw	a1,8(t1) # 1016c <frame_dummy+0x1a>
   103f6:	1054                	addi	a3,sp,36
   103f8:	862a                	mv	a2,a0
   103fa:	851a                	mv	a0,t1
   103fc:	ce06                	sw	ra,28(sp)
   103fe:	c636                	sw	a3,12(sp)
   10400:	2021                	jal	10408 <_vfprintf_r>
   10402:	40f2                	lw	ra,28(sp)
   10404:	6121                	addi	sp,sp,64
   10406:	8082                	ret

00010408 <_vfprintf_r>:
   10408:	7141                	addi	sp,sp,-496
   1040a:	1e112623          	sw	ra,492(sp)
   1040e:	1d412c23          	sw	s4,472(sp)
   10412:	1d512a23          	sw	s5,468(sp)
   10416:	1da12023          	sw	s10,448(sp)
   1041a:	8a2e                	mv	s4,a1
   1041c:	8d32                	mv	s10,a2
   1041e:	c636                	sw	a3,12(sp)
   10420:	1e812423          	sw	s0,488(sp)
   10424:	1e912223          	sw	s1,484(sp)
   10428:	1f212023          	sw	s2,480(sp)
   1042c:	1d312e23          	sw	s3,476(sp)
   10430:	1d612823          	sw	s6,464(sp)
   10434:	1d712623          	sw	s7,460(sp)
   10438:	1d812423          	sw	s8,456(sp)
   1043c:	1d912223          	sw	s9,452(sp)
   10440:	1bb12e23          	sw	s11,444(sp)
   10444:	8aaa                	mv	s5,a0
   10446:	6e0040ef          	jal	ra,14b26 <_localeconv_r>
   1044a:	411c                	lw	a5,0(a0)
   1044c:	853e                	mv	a0,a5
   1044e:	c0be                	sw	a5,64(sp)
   10450:	501050ef          	jal	ra,16150 <strlen>
   10454:	de2a                	sw	a0,60(sp)
   10456:	d982                	sw	zero,240(sp)
   10458:	db82                	sw	zero,244(sp)
   1045a:	dd82                	sw	zero,248(sp)
   1045c:	df82                	sw	zero,252(sp)
   1045e:	000a8663          	beqz	s5,1046a <_vfprintf_r+0x62>
   10462:	038aa703          	lw	a4,56(s5)
   10466:	66070063          	beqz	a4,10ac6 <_vfprintf_r+0x6be>
   1046a:	00ca1683          	lh	a3,12(s4)
   1046e:	6609                	lui	a2,0x2
   10470:	01069713          	slli	a4,a3,0x10
   10474:	8341                	srli	a4,a4,0x10
   10476:	00c775b3          	and	a1,a4,a2
   1047a:	e185                	bnez	a1,1049a <_vfprintf_r+0x92>
   1047c:	064a2583          	lw	a1,100(s4)
   10480:	00c6e733          	or	a4,a3,a2
   10484:	0742                	slli	a4,a4,0x10
   10486:	76f9                	lui	a3,0xffffe
   10488:	8741                	srai	a4,a4,0x10
   1048a:	16fd                	addi	a3,a3,-1
   1048c:	8eed                	and	a3,a3,a1
   1048e:	00ea1623          	sh	a4,12(s4)
   10492:	0742                	slli	a4,a4,0x10
   10494:	06da2223          	sw	a3,100(s4)
   10498:	8341                	srli	a4,a4,0x10
   1049a:	00877693          	andi	a3,a4,8
   1049e:	20068d63          	beqz	a3,106b8 <_vfprintf_r+0x2b0>
   104a2:	010a2683          	lw	a3,16(s4)
   104a6:	20068963          	beqz	a3,106b8 <_vfprintf_r+0x2b0>
   104aa:	8b69                	andi	a4,a4,26
   104ac:	46a9                	li	a3,10
   104ae:	22d70263          	beq	a4,a3,106d2 <_vfprintf_r+0x2ca>
   104b2:	6779                	lui	a4,0x1e
   104b4:	92870793          	addi	a5,a4,-1752 # 1d928 <__clzsi2+0x9a>
   104b8:	000d4703          	lbu	a4,0(s10)
   104bc:	10c10b13          	addi	s6,sp,268
   104c0:	6979                	lui	s2,0x1e
   104c2:	d3da                	sw	s6,228(sp)
   104c4:	d782                	sw	zero,236(sp)
   104c6:	d582                	sw	zero,232(sp)
   104c8:	c802                	sw	zero,16(sp)
   104ca:	cc02                	sw	zero,24(sp)
   104cc:	c282                	sw	zero,68(sp)
   104ce:	dc02                	sw	zero,56(sp)
   104d0:	c482                	sw	zero,72(sp)
   104d2:	c682                	sw	zero,76(sp)
   104d4:	c202                	sw	zero,4(sp)
   104d6:	ca3e                	sw	a5,20(sp)
   104d8:	88da                	mv	a7,s6
   104da:	b3c90913          	addi	s2,s2,-1220 # 1db3c <zeroes.0>
   104de:	18070563          	beqz	a4,10668 <_vfprintf_r+0x260>
   104e2:	846a                	mv	s0,s10
   104e4:	02500693          	li	a3,37
   104e8:	2ed70e63          	beq	a4,a3,107e4 <_vfprintf_r+0x3dc>
   104ec:	00144703          	lbu	a4,1(s0)
   104f0:	0405                	addi	s0,s0,1
   104f2:	fb7d                	bnez	a4,104e8 <_vfprintf_r+0xe0>
   104f4:	41a404b3          	sub	s1,s0,s10
   104f8:	17a40863          	beq	s0,s10,10668 <_vfprintf_r+0x260>
   104fc:	56be                	lw	a3,236(sp)
   104fe:	572e                	lw	a4,232(sp)
   10500:	01a8a023          	sw	s10,0(a7)
   10504:	96a6                	add	a3,a3,s1
   10506:	0705                	addi	a4,a4,1
   10508:	0098a223          	sw	s1,4(a7)
   1050c:	d7b6                	sw	a3,236(sp)
   1050e:	d5ba                	sw	a4,232(sp)
   10510:	469d                	li	a3,7
   10512:	08a1                	addi	a7,a7,8
   10514:	2ce6cf63          	blt	a3,a4,107f2 <_vfprintf_r+0x3ea>
   10518:	4792                	lw	a5,4(sp)
   1051a:	00044703          	lbu	a4,0(s0)
   1051e:	97a6                	add	a5,a5,s1
   10520:	c23e                	sw	a5,4(sp)
   10522:	14070363          	beqz	a4,10668 <_vfprintf_r+0x260>
   10526:	00144e03          	lbu	t3,1(s0)
   1052a:	0c0103a3          	sb	zero,199(sp)
   1052e:	0405                	addi	s0,s0,1
   10530:	537d                	li	t1,-1
   10532:	4981                	li	s3,0
   10534:	4481                	li	s1,0
   10536:	05a00b93          	li	s7,90
   1053a:	4ca5                	li	s9,9
   1053c:	02a00d93          	li	s11,42
   10540:	0405                	addi	s0,s0,1
   10542:	8c72                	mv	s8,t3
   10544:	fe0c0713          	addi	a4,s8,-32
   10548:	02ebeb63          	bltu	s7,a4,1057e <_vfprintf_r+0x176>
   1054c:	47d2                	lw	a5,20(sp)
   1054e:	070a                	slli	a4,a4,0x2
   10550:	973e                	add	a4,a4,a5
   10552:	4318                	lw	a4,0(a4)
   10554:	8702                	jr	a4
   10556:	4981                	li	s3,0
   10558:	fd0c0713          	addi	a4,s8,-48
   1055c:	00044c03          	lbu	s8,0(s0)
   10560:	00299693          	slli	a3,s3,0x2
   10564:	96ce                	add	a3,a3,s3
   10566:	0686                	slli	a3,a3,0x1
   10568:	00d709b3          	add	s3,a4,a3
   1056c:	fd0c0713          	addi	a4,s8,-48
   10570:	0405                	addi	s0,s0,1
   10572:	feecf5e3          	bgeu	s9,a4,1055c <_vfprintf_r+0x154>
   10576:	fe0c0713          	addi	a4,s8,-32
   1057a:	fcebf9e3          	bgeu	s7,a4,1054c <_vfprintf_r+0x144>
   1057e:	0e0c0563          	beqz	s8,10668 <_vfprintf_r+0x260>
   10582:	15810623          	sb	s8,332(sp)
   10586:	0c0103a3          	sb	zero,199(sp)
   1058a:	4b85                	li	s7,1
   1058c:	4c85                	li	s9,1
   1058e:	14c10d13          	addi	s10,sp,332
   10592:	4d81                	li	s11,0
   10594:	4301                	li	t1,0
   10596:	d802                	sw	zero,48(sp)
   10598:	da02                	sw	zero,52(sp)
   1059a:	d602                	sw	zero,44(sp)
   1059c:	0024f293          	andi	t0,s1,2
   105a0:	00028363          	beqz	t0,105a6 <_vfprintf_r+0x19e>
   105a4:	0b89                	addi	s7,s7,2
   105a6:	0844ff93          	andi	t6,s1,132
   105aa:	573e                	lw	a4,236(sp)
   105ac:	000f9663          	bnez	t6,105b8 <_vfprintf_r+0x1b0>
   105b0:	41798833          	sub	a6,s3,s7
   105b4:	110044e3          	bgtz	a6,10ebc <_vfprintf_r+0xab4>
   105b8:	0c714683          	lbu	a3,199(sp)
   105bc:	c28d                	beqz	a3,105de <_vfprintf_r+0x1d6>
   105be:	56ae                	lw	a3,232(sp)
   105c0:	0c710613          	addi	a2,sp,199
   105c4:	00c8a023          	sw	a2,0(a7)
   105c8:	0705                	addi	a4,a4,1
   105ca:	4605                	li	a2,1
   105cc:	0685                	addi	a3,a3,1
   105ce:	00c8a223          	sw	a2,4(a7)
   105d2:	d7ba                	sw	a4,236(sp)
   105d4:	d5b6                	sw	a3,232(sp)
   105d6:	461d                	li	a2,7
   105d8:	08a1                	addi	a7,a7,8
   105da:	2cd64663          	blt	a2,a3,108a6 <_vfprintf_r+0x49e>
   105de:	02028163          	beqz	t0,10600 <_vfprintf_r+0x1f8>
   105e2:	56ae                	lw	a3,232(sp)
   105e4:	01b0                	addi	a2,sp,200
   105e6:	00c8a023          	sw	a2,0(a7)
   105ea:	0709                	addi	a4,a4,2
   105ec:	4609                	li	a2,2
   105ee:	0685                	addi	a3,a3,1
   105f0:	00c8a223          	sw	a2,4(a7)
   105f4:	d7ba                	sw	a4,236(sp)
   105f6:	d5b6                	sw	a3,232(sp)
   105f8:	461d                	li	a2,7
   105fa:	08a1                	addi	a7,a7,8
   105fc:	14d64ce3          	blt	a2,a3,10f54 <_vfprintf_r+0xb4c>
   10600:	08000693          	li	a3,128
   10604:	78df8d63          	beq	t6,a3,10d9e <_vfprintf_r+0x996>
   10608:	41930333          	sub	t1,t1,s9
   1060c:	00604ce3          	bgtz	t1,10e24 <_vfprintf_r+0xa1c>
   10610:	1004f693          	andi	a3,s1,256
   10614:	6c069263          	bnez	a3,10cd8 <_vfprintf_r+0x8d0>
   10618:	57ae                	lw	a5,232(sp)
   1061a:	9766                	add	a4,a4,s9
   1061c:	01a8a023          	sw	s10,0(a7)
   10620:	0785                	addi	a5,a5,1
   10622:	0198a223          	sw	s9,4(a7)
   10626:	d7ba                	sw	a4,236(sp)
   10628:	d5be                	sw	a5,232(sp)
   1062a:	469d                	li	a3,7
   1062c:	34f6c263          	blt	a3,a5,10970 <_vfprintf_r+0x568>
   10630:	08a1                	addi	a7,a7,8
   10632:	8891                	andi	s1,s1,4
   10634:	c489                	beqz	s1,1063e <_vfprintf_r+0x236>
   10636:	417984b3          	sub	s1,s3,s7
   1063a:	34904563          	bgtz	s1,10984 <_vfprintf_r+0x57c>
   1063e:	0179d363          	bge	s3,s7,10644 <_vfprintf_r+0x23c>
   10642:	89de                	mv	s3,s7
   10644:	4792                	lw	a5,4(sp)
   10646:	97ce                	add	a5,a5,s3
   10648:	c23e                	sw	a5,4(sp)
   1064a:	040718e3          	bnez	a4,10e9a <_vfprintf_r+0xa92>
   1064e:	d582                	sw	zero,232(sp)
   10650:	000d8663          	beqz	s11,1065c <_vfprintf_r+0x254>
   10654:	85ee                	mv	a1,s11
   10656:	8556                	mv	a0,s5
   10658:	20e020ef          	jal	ra,12866 <_free_r>
   1065c:	88da                	mv	a7,s6
   1065e:	8d22                	mv	s10,s0
   10660:	000d4703          	lbu	a4,0(s10)
   10664:	e6071fe3          	bnez	a4,104e2 <_vfprintf_r+0xda>
   10668:	57be                	lw	a5,236(sp)
   1066a:	c399                	beqz	a5,10670 <_vfprintf_r+0x268>
   1066c:	3660106f          	j	119d2 <_vfprintf_r+0x15ca>
   10670:	00ca5783          	lhu	a5,12(s4)
   10674:	0407f793          	andi	a5,a5,64
   10678:	c399                	beqz	a5,1067e <_vfprintf_r+0x276>
   1067a:	7560106f          	j	11dd0 <_vfprintf_r+0x19c8>
   1067e:	1ec12083          	lw	ra,492(sp)
   10682:	1e812403          	lw	s0,488(sp)
   10686:	4512                	lw	a0,4(sp)
   10688:	1e412483          	lw	s1,484(sp)
   1068c:	1e012903          	lw	s2,480(sp)
   10690:	1dc12983          	lw	s3,476(sp)
   10694:	1d812a03          	lw	s4,472(sp)
   10698:	1d412a83          	lw	s5,468(sp)
   1069c:	1d012b03          	lw	s6,464(sp)
   106a0:	1cc12b83          	lw	s7,460(sp)
   106a4:	1c812c03          	lw	s8,456(sp)
   106a8:	1c412c83          	lw	s9,452(sp)
   106ac:	1c012d03          	lw	s10,448(sp)
   106b0:	1bc12d83          	lw	s11,444(sp)
   106b4:	617d                	addi	sp,sp,496
   106b6:	8082                	ret
   106b8:	85d2                	mv	a1,s4
   106ba:	8556                	mv	a0,s5
   106bc:	24d010ef          	jal	ra,12108 <__swsetup_r>
   106c0:	c119                	beqz	a0,106c6 <_vfprintf_r+0x2be>
   106c2:	70e0106f          	j	11dd0 <_vfprintf_r+0x19c8>
   106c6:	00ca5703          	lhu	a4,12(s4)
   106ca:	46a9                	li	a3,10
   106cc:	8b69                	andi	a4,a4,26
   106ce:	ded712e3          	bne	a4,a3,104b2 <_vfprintf_r+0xaa>
   106d2:	00ea1703          	lh	a4,14(s4)
   106d6:	dc074ee3          	bltz	a4,104b2 <_vfprintf_r+0xaa>
   106da:	46b2                	lw	a3,12(sp)
   106dc:	866a                	mv	a2,s10
   106de:	85d2                	mv	a1,s4
   106e0:	8556                	mv	a0,s5
   106e2:	195010ef          	jal	ra,12076 <__sbprintf>
   106e6:	c22a                	sw	a0,4(sp)
   106e8:	bf59                	j	1067e <_vfprintf_r+0x276>
   106ea:	8556                	mv	a0,s5
   106ec:	ce46                	sw	a7,28(sp)
   106ee:	c41a                	sw	t1,8(sp)
   106f0:	436040ef          	jal	ra,14b26 <_localeconv_r>
   106f4:	415c                	lw	a5,4(a0)
   106f6:	853e                	mv	a0,a5
   106f8:	c6be                	sw	a5,76(sp)
   106fa:	257050ef          	jal	ra,16150 <strlen>
   106fe:	872a                	mv	a4,a0
   10700:	8556                	mv	a0,s5
   10702:	8c3a                	mv	s8,a4
   10704:	c4ba                	sw	a4,72(sp)
   10706:	420040ef          	jal	ra,14b26 <_localeconv_r>
   1070a:	451c                	lw	a5,8(a0)
   1070c:	4322                	lw	t1,8(sp)
   1070e:	48f2                	lw	a7,28(sp)
   10710:	dc3e                	sw	a5,56(sp)
   10712:	260c12e3          	bnez	s8,11176 <_vfprintf_r+0xd6e>
   10716:	00044e03          	lbu	t3,0(s0)
   1071a:	b51d                	j	10540 <_vfprintf_r+0x138>
   1071c:	00044e03          	lbu	t3,0(s0)
   10720:	0204e493          	ori	s1,s1,32
   10724:	bd31                	j	10540 <_vfprintf_r+0x138>
   10726:	0104e493          	ori	s1,s1,16
   1072a:	0204f793          	andi	a5,s1,32
   1072e:	2e078a63          	beqz	a5,10a22 <_vfprintf_r+0x61a>
   10732:	47b2                	lw	a5,12(sp)
   10734:	079d                	addi	a5,a5,7
   10736:	ff87f713          	andi	a4,a5,-8
   1073a:	435c                	lw	a5,4(a4)
   1073c:	00072b83          	lw	s7,0(a4)
   10740:	0721                	addi	a4,a4,8
   10742:	c63a                	sw	a4,12(sp)
   10744:	8cbe                	mv	s9,a5
   10746:	3007c363          	bltz	a5,10a4c <_vfprintf_r+0x644>
   1074a:	57fd                	li	a5,-1
   1074c:	8726                	mv	a4,s1
   1074e:	3ef30b63          	beq	t1,a5,10b44 <_vfprintf_r+0x73c>
   10752:	019be7b3          	or	a5,s7,s9
   10756:	f7f4f713          	andi	a4,s1,-129
   1075a:	3e079563          	bnez	a5,10b44 <_vfprintf_r+0x73c>
   1075e:	3e031863          	bnez	t1,10b4e <_vfprintf_r+0x746>
   10762:	84ba                	mv	s1,a4
   10764:	4301                	li	t1,0
   10766:	4c81                	li	s9,0
   10768:	1b010d13          	addi	s10,sp,432
   1076c:	0c714703          	lbu	a4,199(sp)
   10770:	8be6                	mv	s7,s9
   10772:	006cd363          	bge	s9,t1,10778 <_vfprintf_r+0x370>
   10776:	8b9a                	mv	s7,t1
   10778:	d802                	sw	zero,48(sp)
   1077a:	da02                	sw	zero,52(sp)
   1077c:	d602                	sw	zero,44(sp)
   1077e:	4d81                	li	s11,0
   10780:	e0070ee3          	beqz	a4,1059c <_vfprintf_r+0x194>
   10784:	0b85                	addi	s7,s7,1
   10786:	bd19                	j	1059c <_vfprintf_r+0x194>
   10788:	0104e493          	ori	s1,s1,16
   1078c:	0204f793          	andi	a5,s1,32
   10790:	26078763          	beqz	a5,109fe <_vfprintf_r+0x5f6>
   10794:	47b2                	lw	a5,12(sp)
   10796:	079d                	addi	a5,a5,7
   10798:	9be1                	andi	a5,a5,-8
   1079a:	0007ab83          	lw	s7,0(a5)
   1079e:	0047ac83          	lw	s9,4(a5)
   107a2:	07a1                	addi	a5,a5,8
   107a4:	c63e                	sw	a5,12(sp)
   107a6:	bff4f713          	andi	a4,s1,-1025
   107aa:	4781                	li	a5,0
   107ac:	4681                	li	a3,0
   107ae:	0cd103a3          	sb	a3,199(sp)
   107b2:	56fd                	li	a3,-1
   107b4:	2ad30d63          	beq	t1,a3,10a6e <_vfprintf_r+0x666>
   107b8:	019be6b3          	or	a3,s7,s9
   107bc:	f7f77493          	andi	s1,a4,-129
   107c0:	6e069c63          	bnez	a3,10eb8 <_vfprintf_r+0xab0>
   107c4:	700312e3          	bnez	t1,116c8 <_vfprintf_r+0x12c0>
   107c8:	ffd1                	bnez	a5,10764 <_vfprintf_r+0x35c>
   107ca:	00177c93          	andi	s9,a4,1
   107ce:	1b010d13          	addi	s10,sp,432
   107d2:	f80c8de3          	beqz	s9,1076c <_vfprintf_r+0x364>
   107d6:	03000793          	li	a5,48
   107da:	1af107a3          	sb	a5,431(sp)
   107de:	1af10d13          	addi	s10,sp,431
   107e2:	b769                	j	1076c <_vfprintf_r+0x364>
   107e4:	41a404b3          	sub	s1,s0,s10
   107e8:	d1a41ae3          	bne	s0,s10,104fc <_vfprintf_r+0xf4>
   107ec:	00044703          	lbu	a4,0(s0)
   107f0:	bb0d                	j	10522 <_vfprintf_r+0x11a>
   107f2:	11d0                	addi	a2,sp,228
   107f4:	85d2                	mv	a1,s4
   107f6:	8556                	mv	a0,s5
   107f8:	6d2070ef          	jal	ra,17eca <__sprint_r>
   107fc:	e6051ae3          	bnez	a0,10670 <_vfprintf_r+0x268>
   10800:	88da                	mv	a7,s6
   10802:	bb19                	j	10518 <_vfprintf_r+0x110>
   10804:	0084f713          	andi	a4,s1,8
   10808:	140713e3          	bnez	a4,1114e <_vfprintf_r+0xd46>
   1080c:	47b2                	lw	a5,12(sp)
   1080e:	1908                	addi	a0,sp,176
   10810:	ce46                	sw	a7,28(sp)
   10812:	079d                	addi	a5,a5,7
   10814:	9be1                	andi	a5,a5,-8
   10816:	2388                	fld	fa0,0(a5)
   10818:	07a1                	addi	a5,a5,8
   1081a:	c41a                	sw	t1,8(sp)
   1081c:	c63e                	sw	a5,12(sp)
   1081e:	37b0c0ef          	jal	ra,1d398 <__extenddftf2>
   10822:	55ca                	lw	a1,176(sp)
   10824:	565a                	lw	a2,180(sp)
   10826:	56ea                	lw	a3,184(sp)
   10828:	577a                	lw	a4,188(sp)
   1082a:	48f2                	lw	a7,28(sp)
   1082c:	4322                	lw	t1,8(sp)
   1082e:	1988                	addi	a0,sp,240
   10830:	ce46                	sw	a7,28(sp)
   10832:	c41a                	sw	t1,8(sp)
   10834:	dfba                	sw	a4,252(sp)
   10836:	d9ae                	sw	a1,240(sp)
   10838:	dbb2                	sw	a2,244(sp)
   1083a:	ddb6                	sw	a3,248(sp)
   1083c:	29a040ef          	jal	ra,14ad6 <_ldcheck>
   10840:	c7aa                	sw	a0,204(sp)
   10842:	4709                	li	a4,2
   10844:	4322                	lw	t1,8(sp)
   10846:	48f2                	lw	a7,28(sp)
   10848:	68e509e3          	beq	a0,a4,116da <_vfprintf_r+0x12d2>
   1084c:	4705                	li	a4,1
   1084e:	00e51463          	bne	a0,a4,10856 <_vfprintf_r+0x44e>
   10852:	76f0006f          	j	117c0 <_vfprintf_r+0x13b8>
   10856:	06100713          	li	a4,97
   1085a:	20ec0ee3          	beq	s8,a4,11276 <_vfprintf_r+0xe6e>
   1085e:	04100713          	li	a4,65
   10862:	05800793          	li	a5,88
   10866:	20ec0ae3          	beq	s8,a4,1127a <_vfprintf_r+0xe72>
   1086a:	fdfc7793          	andi	a5,s8,-33
   1086e:	577d                	li	a4,-1
   10870:	d2be                	sw	a5,100(sp)
   10872:	00e31463          	bne	t1,a4,1087a <_vfprintf_r+0x472>
   10876:	62e0106f          	j	11ea4 <_vfprintf_r+0x1a9c>
   1087a:	04700713          	li	a4,71
   1087e:	00e79463          	bne	a5,a4,10886 <_vfprintf_r+0x47e>
   10882:	6140106f          	j	11e96 <_vfprintf_r+0x1a8e>
   10886:	5efe                	lw	t4,252(sp)
   10888:	d4a6                	sw	s1,104(sp)
   1088a:	5f4e                	lw	t5,240(sp)
   1088c:	5fde                	lw	t6,244(sp)
   1088e:	52ee                	lw	t0,248(sp)
   10890:	1004e713          	ori	a4,s1,256
   10894:	000ed463          	bgez	t4,1089c <_vfprintf_r+0x494>
   10898:	1480106f          	j	119e0 <_vfprintf_r+0x15d8>
   1089c:	de82                	sw	zero,124(sp)
   1089e:	84ba                	mv	s1,a4
   108a0:	4d81                	li	s11,0
   108a2:	2190006f          	j	112ba <_vfprintf_r+0xeb2>
   108a6:	11d0                	addi	a2,sp,228
   108a8:	85d2                	mv	a1,s4
   108aa:	8556                	mv	a0,s5
   108ac:	d01a                	sw	t1,32(sp)
   108ae:	ce7e                	sw	t6,28(sp)
   108b0:	c416                	sw	t0,8(sp)
   108b2:	618070ef          	jal	ra,17eca <__sprint_r>
   108b6:	5e051963          	bnez	a0,10ea8 <_vfprintf_r+0xaa0>
   108ba:	573e                	lw	a4,236(sp)
   108bc:	5302                	lw	t1,32(sp)
   108be:	4ff2                	lw	t6,28(sp)
   108c0:	42a2                	lw	t0,8(sp)
   108c2:	88da                	mv	a7,s6
   108c4:	bb29                	j	105de <_vfprintf_r+0x1d6>
   108c6:	5cae                	lw	s9,232(sp)
   108c8:	47c2                	lw	a5,16(sp)
   108ca:	4685                	li	a3,1
   108cc:	01a8a023          	sw	s10,0(a7)
   108d0:	0705                	addi	a4,a4,1
   108d2:	0c85                	addi	s9,s9,1
   108d4:	00888c13          	addi	s8,a7,8
   108d8:	78f6dd63          	bge	a3,a5,11072 <_vfprintf_r+0xc6a>
   108dc:	4685                	li	a3,1
   108de:	00d8a223          	sw	a3,4(a7)
   108e2:	d7ba                	sw	a4,236(sp)
   108e4:	d5e6                	sw	s9,232(sp)
   108e6:	469d                	li	a3,7
   108e8:	3b96cee3          	blt	a3,s9,114a4 <_vfprintf_r+0x109c>
   108ec:	57f2                	lw	a5,60(sp)
   108ee:	4686                	lw	a3,64(sp)
   108f0:	0c85                	addi	s9,s9,1
   108f2:	973e                	add	a4,a4,a5
   108f4:	00dc2023          	sw	a3,0(s8)
   108f8:	00fc2223          	sw	a5,4(s8)
   108fc:	d7ba                	sw	a4,236(sp)
   108fe:	d5e6                	sw	s9,232(sp)
   10900:	469d                	li	a3,7
   10902:	0c21                	addi	s8,s8,8
   10904:	3b96cce3          	blt	a3,s9,114bc <_vfprintf_r+0x10b4>
   10908:	56ce                	lw	a3,240(sp)
   1090a:	110c                	addi	a1,sp,160
   1090c:	1908                	addi	a0,sp,176
   1090e:	d936                	sw	a3,176(sp)
   10910:	56de                	lw	a3,244(sp)
   10912:	c43a                	sw	a4,8(sp)
   10914:	d102                	sw	zero,160(sp)
   10916:	db36                	sw	a3,180(sp)
   10918:	56ee                	lw	a3,248(sp)
   1091a:	d302                	sw	zero,164(sp)
   1091c:	d502                	sw	zero,168(sp)
   1091e:	dd36                	sw	a3,184(sp)
   10920:	56fe                	lw	a3,252(sp)
   10922:	d702                	sw	zero,172(sp)
   10924:	df36                	sw	a3,188(sp)
   10926:	7380a0ef          	jal	ra,1b05e <__eqtf2>
   1092a:	47c2                	lw	a5,16(sp)
   1092c:	4722                	lw	a4,8(sp)
   1092e:	fff78693          	addi	a3,a5,-1
   10932:	76050663          	beqz	a0,1109e <_vfprintf_r+0xc96>
   10936:	001d0793          	addi	a5,s10,1
   1093a:	0c85                	addi	s9,s9,1
   1093c:	9736                	add	a4,a4,a3
   1093e:	00fc2023          	sw	a5,0(s8)
   10942:	00dc2223          	sw	a3,4(s8)
   10946:	d7ba                	sw	a4,236(sp)
   10948:	d5e6                	sw	s9,232(sp)
   1094a:	479d                	li	a5,7
   1094c:	0c21                	addi	s8,s8,8
   1094e:	7397cd63          	blt	a5,s9,11088 <_vfprintf_r+0xc80>
   10952:	4696                	lw	a3,68(sp)
   10954:	09dc                	addi	a5,sp,212
   10956:	0c85                	addi	s9,s9,1
   10958:	9736                	add	a4,a4,a3
   1095a:	00fc2023          	sw	a5,0(s8)
   1095e:	00dc2223          	sw	a3,4(s8)
   10962:	d7ba                	sw	a4,236(sp)
   10964:	d5e6                	sw	s9,232(sp)
   10966:	479d                	li	a5,7
   10968:	008c0893          	addi	a7,s8,8
   1096c:	cd97d3e3          	bge	a5,s9,10632 <_vfprintf_r+0x22a>
   10970:	11d0                	addi	a2,sp,228
   10972:	85d2                	mv	a1,s4
   10974:	8556                	mv	a0,s5
   10976:	554070ef          	jal	ra,17eca <__sprint_r>
   1097a:	52051763          	bnez	a0,10ea8 <_vfprintf_r+0xaa0>
   1097e:	573e                	lw	a4,236(sp)
   10980:	88da                	mv	a7,s6
   10982:	b945                	j	10632 <_vfprintf_r+0x22a>
   10984:	46c1                	li	a3,16
   10986:	57ae                	lw	a5,232(sp)
   10988:	0096c463          	blt	a3,s1,10990 <_vfprintf_r+0x588>
   1098c:	43a0106f          	j	11dc6 <_vfprintf_r+0x19be>
   10990:	66f9                	lui	a3,0x1e
   10992:	b2c68e93          	addi	t4,a3,-1236 # 1db2c <blanks.1>
   10996:	4cc1                	li	s9,16
   10998:	4c1d                	li	s8,7
   1099a:	a021                	j	109a2 <_vfprintf_r+0x59a>
   1099c:	14c1                	addi	s1,s1,-16
   1099e:	029cdc63          	bge	s9,s1,109d6 <_vfprintf_r+0x5ce>
   109a2:	0741                	addi	a4,a4,16
   109a4:	0785                	addi	a5,a5,1
   109a6:	01d8a023          	sw	t4,0(a7)
   109aa:	0198a223          	sw	s9,4(a7)
   109ae:	d7ba                	sw	a4,236(sp)
   109b0:	d5be                	sw	a5,232(sp)
   109b2:	08a1                	addi	a7,a7,8
   109b4:	fefc54e3          	bge	s8,a5,1099c <_vfprintf_r+0x594>
   109b8:	11d0                	addi	a2,sp,228
   109ba:	85d2                	mv	a1,s4
   109bc:	8556                	mv	a0,s5
   109be:	c476                	sw	t4,8(sp)
   109c0:	50a070ef          	jal	ra,17eca <__sprint_r>
   109c4:	4e051263          	bnez	a0,10ea8 <_vfprintf_r+0xaa0>
   109c8:	14c1                	addi	s1,s1,-16
   109ca:	573e                	lw	a4,236(sp)
   109cc:	57ae                	lw	a5,232(sp)
   109ce:	4ea2                	lw	t4,8(sp)
   109d0:	88da                	mv	a7,s6
   109d2:	fc9cc8e3          	blt	s9,s1,109a2 <_vfprintf_r+0x59a>
   109d6:	9726                	add	a4,a4,s1
   109d8:	0785                	addi	a5,a5,1
   109da:	01d8a023          	sw	t4,0(a7)
   109de:	0098a223          	sw	s1,4(a7)
   109e2:	d7ba                	sw	a4,236(sp)
   109e4:	d5be                	sw	a5,232(sp)
   109e6:	469d                	li	a3,7
   109e8:	c4f6dbe3          	bge	a3,a5,1063e <_vfprintf_r+0x236>
   109ec:	11d0                	addi	a2,sp,228
   109ee:	85d2                	mv	a1,s4
   109f0:	8556                	mv	a0,s5
   109f2:	4d8070ef          	jal	ra,17eca <__sprint_r>
   109f6:	4a051963          	bnez	a0,10ea8 <_vfprintf_r+0xaa0>
   109fa:	573e                	lw	a4,236(sp)
   109fc:	b189                	j	1063e <_vfprintf_r+0x236>
   109fe:	4732                	lw	a4,12(sp)
   10a00:	0104f793          	andi	a5,s1,16
   10a04:	00072b83          	lw	s7,0(a4)
   10a08:	0711                	addi	a4,a4,4
   10a0a:	c63a                	sw	a4,12(sp)
   10a0c:	72079e63          	bnez	a5,11148 <_vfprintf_r+0xd40>
   10a10:	0404f793          	andi	a5,s1,64
   10a14:	72078663          	beqz	a5,11140 <_vfprintf_r+0xd38>
   10a18:	0bc2                	slli	s7,s7,0x10
   10a1a:	010bdb93          	srli	s7,s7,0x10
   10a1e:	4c81                	li	s9,0
   10a20:	b359                	j	107a6 <_vfprintf_r+0x39e>
   10a22:	4732                	lw	a4,12(sp)
   10a24:	0104f793          	andi	a5,s1,16
   10a28:	00072b83          	lw	s7,0(a4)
   10a2c:	0711                	addi	a4,a4,4
   10a2e:	c63a                	sw	a4,12(sp)
   10a30:	70079363          	bnez	a5,11136 <_vfprintf_r+0xd2e>
   10a34:	0404f793          	andi	a5,s1,64
   10a38:	6e078b63          	beqz	a5,1112e <_vfprintf_r+0xd26>
   10a3c:	0bc2                	slli	s7,s7,0x10
   10a3e:	410bdb93          	srai	s7,s7,0x10
   10a42:	41fbdc93          	srai	s9,s7,0x1f
   10a46:	87e6                	mv	a5,s9
   10a48:	d007d1e3          	bgez	a5,1074a <_vfprintf_r+0x342>
   10a4c:	02d00693          	li	a3,45
   10a50:	017037b3          	snez	a5,s7
   10a54:	41900cb3          	neg	s9,s9
   10a58:	0cd103a3          	sb	a3,199(sp)
   10a5c:	56fd                	li	a3,-1
   10a5e:	40fc8cb3          	sub	s9,s9,a5
   10a62:	41700bb3          	neg	s7,s7
   10a66:	8726                	mv	a4,s1
   10a68:	4785                	li	a5,1
   10a6a:	d4d317e3          	bne	t1,a3,107b8 <_vfprintf_r+0x3b0>
   10a6e:	4685                	li	a3,1
   10a70:	0cd78a63          	beq	a5,a3,10b44 <_vfprintf_r+0x73c>
   10a74:	4689                	li	a3,2
   10a76:	22d78663          	beq	a5,a3,10ca2 <_vfprintf_r+0x89a>
   10a7a:	1b010d13          	addi	s10,sp,432
   10a7e:	01dc9613          	slli	a2,s9,0x1d
   10a82:	007bf693          	andi	a3,s7,7
   10a86:	003bdb93          	srli	s7,s7,0x3
   10a8a:	03068693          	addi	a3,a3,48
   10a8e:	01766bb3          	or	s7,a2,s7
   10a92:	003cdc93          	srli	s9,s9,0x3
   10a96:	fedd0fa3          	sb	a3,-1(s10)
   10a9a:	019be633          	or	a2,s7,s9
   10a9e:	85ea                	mv	a1,s10
   10aa0:	1d7d                	addi	s10,s10,-1
   10aa2:	fe71                	bnez	a2,10a7e <_vfprintf_r+0x676>
   10aa4:	00177613          	andi	a2,a4,1
   10aa8:	22060363          	beqz	a2,10cce <_vfprintf_r+0x8c6>
   10aac:	03000613          	li	a2,48
   10ab0:	20c68f63          	beq	a3,a2,10cce <_vfprintf_r+0x8c6>
   10ab4:	15f9                	addi	a1,a1,-2
   10ab6:	1b1c                	addi	a5,sp,432
   10ab8:	fecd0fa3          	sb	a2,-1(s10)
   10abc:	40b78cb3          	sub	s9,a5,a1
   10ac0:	84ba                	mv	s1,a4
   10ac2:	8d2e                	mv	s10,a1
   10ac4:	b165                	j	1076c <_vfprintf_r+0x364>
   10ac6:	8556                	mv	a0,s5
   10ac8:	477010ef          	jal	ra,1273e <__sinit>
   10acc:	ba79                	j	1046a <_vfprintf_r+0x62>
   10ace:	4732                	lw	a4,12(sp)
   10ad0:	0c0103a3          	sb	zero,199(sp)
   10ad4:	4b85                	li	s7,1
   10ad6:	431c                	lw	a5,0(a4)
   10ad8:	0711                	addi	a4,a4,4
   10ada:	c63a                	sw	a4,12(sp)
   10adc:	14f10623          	sb	a5,332(sp)
   10ae0:	4c85                	li	s9,1
   10ae2:	14c10d13          	addi	s10,sp,332
   10ae6:	b475                	j	10592 <_vfprintf_r+0x18a>
   10ae8:	47b2                	lw	a5,12(sp)
   10aea:	0c0103a3          	sb	zero,199(sp)
   10aee:	0007ad03          	lw	s10,0(a5)
   10af2:	00478693          	addi	a3,a5,4
   10af6:	720d0463          	beqz	s10,1121e <_vfprintf_r+0xe16>
   10afa:	577d                	li	a4,-1
   10afc:	48e309e3          	beq	t1,a4,1178e <_vfprintf_r+0x1386>
   10b00:	861a                	mv	a2,t1
   10b02:	4581                	li	a1,0
   10b04:	856a                	mv	a0,s10
   10b06:	ce36                	sw	a3,28(sp)
   10b08:	c646                	sw	a7,12(sp)
   10b0a:	c41a                	sw	t1,8(sp)
   10b0c:	760040ef          	jal	ra,1526c <memchr>
   10b10:	4322                	lw	t1,8(sp)
   10b12:	48b2                	lw	a7,12(sp)
   10b14:	46f2                	lw	a3,28(sp)
   10b16:	8daa                	mv	s11,a0
   10b18:	e119                	bnez	a0,10b1e <_vfprintf_r+0x716>
   10b1a:	1e00106f          	j	11cfa <_vfprintf_r+0x18f2>
   10b1e:	41a50cb3          	sub	s9,a0,s10
   10b22:	0c714703          	lbu	a4,199(sp)
   10b26:	fffccb93          	not	s7,s9
   10b2a:	41fbdb93          	srai	s7,s7,0x1f
   10b2e:	c636                	sw	a3,12(sp)
   10b30:	d802                	sw	zero,48(sp)
   10b32:	da02                	sw	zero,52(sp)
   10b34:	d602                	sw	zero,44(sp)
   10b36:	017cfbb3          	and	s7,s9,s7
   10b3a:	4d81                	li	s11,0
   10b3c:	4301                	li	t1,0
   10b3e:	c40713e3          	bnez	a4,10784 <_vfprintf_r+0x37c>
   10b42:	bca9                	j	1059c <_vfprintf_r+0x194>
   10b44:	180c9ee3          	bnez	s9,114e0 <_vfprintf_r+0x10d8>
   10b48:	47a5                	li	a5,9
   10b4a:	1977ebe3          	bltu	a5,s7,114e0 <_vfprintf_r+0x10d8>
   10b4e:	030b8b93          	addi	s7,s7,48
   10b52:	1b7107a3          	sb	s7,431(sp)
   10b56:	84ba                	mv	s1,a4
   10b58:	4c85                	li	s9,1
   10b5a:	1af10d13          	addi	s10,sp,431
   10b5e:	b139                	j	1076c <_vfprintf_r+0x364>
   10b60:	47b2                	lw	a5,12(sp)
   10b62:	0007a983          	lw	s3,0(a5)
   10b66:	00478c13          	addi	s8,a5,4
   10b6a:	5a09d463          	bgez	s3,11112 <_vfprintf_r+0xd0a>
   10b6e:	413009b3          	neg	s3,s3
   10b72:	c662                	sw	s8,12(sp)
   10b74:	00044e03          	lbu	t3,0(s0)
   10b78:	0044e493          	ori	s1,s1,4
   10b7c:	b2d1                	j	10540 <_vfprintf_r+0x138>
   10b7e:	02b00713          	li	a4,43
   10b82:	00044e03          	lbu	t3,0(s0)
   10b86:	0ce103a3          	sb	a4,199(sp)
   10b8a:	ba5d                	j	10540 <_vfprintf_r+0x138>
   10b8c:	00044e03          	lbu	t3,0(s0)
   10b90:	0804e493          	ori	s1,s1,128
   10b94:	b275                	j	10540 <_vfprintf_r+0x138>
   10b96:	00044c03          	lbu	s8,0(s0)
   10b9a:	00140693          	addi	a3,s0,1
   10b9e:	01bc1463          	bne	s8,s11,10ba6 <_vfprintf_r+0x79e>
   10ba2:	4980106f          	j	1203a <_vfprintf_r+0x1c32>
   10ba6:	fd0c0713          	addi	a4,s8,-48
   10baa:	8436                	mv	s0,a3
   10bac:	4301                	li	t1,0
   10bae:	98ecebe3          	bltu	s9,a4,10544 <_vfprintf_r+0x13c>
   10bb2:	00044c03          	lbu	s8,0(s0)
   10bb6:	00231693          	slli	a3,t1,0x2
   10bba:	969a                	add	a3,a3,t1
   10bbc:	0686                	slli	a3,a3,0x1
   10bbe:	00e68333          	add	t1,a3,a4
   10bc2:	fd0c0713          	addi	a4,s8,-48
   10bc6:	0405                	addi	s0,s0,1
   10bc8:	feecf5e3          	bgeu	s9,a4,10bb2 <_vfprintf_r+0x7aa>
   10bcc:	baa5                	j	10544 <_vfprintf_r+0x13c>
   10bce:	00044e03          	lbu	t3,0(s0)
   10bd2:	0014e493          	ori	s1,s1,1
   10bd6:	b2ad                	j	10540 <_vfprintf_r+0x138>
   10bd8:	0c714703          	lbu	a4,199(sp)
   10bdc:	00044e03          	lbu	t3,0(s0)
   10be0:	960710e3          	bnez	a4,10540 <_vfprintf_r+0x138>
   10be4:	02000713          	li	a4,32
   10be8:	0ce103a3          	sb	a4,199(sp)
   10bec:	ba91                	j	10540 <_vfprintf_r+0x138>
   10bee:	0104e713          	ori	a4,s1,16
   10bf2:	02077793          	andi	a5,a4,32
   10bf6:	4e078763          	beqz	a5,110e4 <_vfprintf_r+0xcdc>
   10bfa:	47b2                	lw	a5,12(sp)
   10bfc:	079d                	addi	a5,a5,7
   10bfe:	9be1                	andi	a5,a5,-8
   10c00:	0007ab83          	lw	s7,0(a5)
   10c04:	0047ac83          	lw	s9,4(a5)
   10c08:	07a1                	addi	a5,a5,8
   10c0a:	c63e                	sw	a5,12(sp)
   10c0c:	4785                	li	a5,1
   10c0e:	be79                	j	107ac <_vfprintf_r+0x3a4>
   10c10:	00044e03          	lbu	t3,0(s0)
   10c14:	0084e493          	ori	s1,s1,8
   10c18:	b225                	j	10540 <_vfprintf_r+0x138>
   10c1a:	46b2                	lw	a3,12(sp)
   10c1c:	77e1                	lui	a5,0xffff8
   10c1e:	8307c793          	xori	a5,a5,-2000
   10c22:	0cf11423          	sh	a5,200(sp)
   10c26:	00468793          	addi	a5,a3,4
   10c2a:	c63e                	sw	a5,12(sp)
   10c2c:	67f9                	lui	a5,0x1e
   10c2e:	8f478793          	addi	a5,a5,-1804 # 1d8f4 <__clzsi2+0x66>
   10c32:	cc3e                	sw	a5,24(sp)
   10c34:	0006ab83          	lw	s7,0(a3)
   10c38:	4c81                	li	s9,0
   10c3a:	0024e713          	ori	a4,s1,2
   10c3e:	4789                	li	a5,2
   10c40:	07800c13          	li	s8,120
   10c44:	b6a5                	j	107ac <_vfprintf_r+0x3a4>
   10c46:	46b2                	lw	a3,12(sp)
   10c48:	0204f793          	andi	a5,s1,32
   10c4c:	00468713          	addi	a4,a3,4
   10c50:	50079963          	bnez	a5,11162 <_vfprintf_r+0xd5a>
   10c54:	0104f793          	andi	a5,s1,16
   10c58:	2c079ce3          	bnez	a5,11730 <_vfprintf_r+0x1328>
   10c5c:	0404f793          	andi	a5,s1,64
   10c60:	520797e3          	bnez	a5,1198e <_vfprintf_r+0x1586>
   10c64:	2004f493          	andi	s1,s1,512
   10c68:	2c0484e3          	beqz	s1,11730 <_vfprintf_r+0x1328>
   10c6c:	47b2                	lw	a5,12(sp)
   10c6e:	c63a                	sw	a4,12(sp)
   10c70:	4712                	lw	a4,4(sp)
   10c72:	439c                	lw	a5,0(a5)
   10c74:	8d22                	mv	s10,s0
   10c76:	00e78023          	sb	a4,0(a5)
   10c7a:	b2dd                	j	10660 <_vfprintf_r+0x258>
   10c7c:	00044e03          	lbu	t3,0(s0)
   10c80:	06c00713          	li	a4,108
   10c84:	58ee0163          	beq	t3,a4,11206 <_vfprintf_r+0xdfe>
   10c88:	0104e493          	ori	s1,s1,16
   10c8c:	b855                	j	10540 <_vfprintf_r+0x138>
   10c8e:	00044e03          	lbu	t3,0(s0)
   10c92:	06800713          	li	a4,104
   10c96:	54ee0763          	beq	t3,a4,111e4 <_vfprintf_r+0xddc>
   10c9a:	0404e493          	ori	s1,s1,64
   10c9e:	b04d                	j	10540 <_vfprintf_r+0x138>
   10ca0:	8726                	mv	a4,s1
   10ca2:	1b010d13          	addi	s10,sp,432
   10ca6:	47e2                	lw	a5,24(sp)
   10ca8:	00fbf693          	andi	a3,s7,15
   10cac:	004bdb93          	srli	s7,s7,0x4
   10cb0:	96be                	add	a3,a3,a5
   10cb2:	0006c603          	lbu	a2,0(a3)
   10cb6:	01cc9693          	slli	a3,s9,0x1c
   10cba:	0176ebb3          	or	s7,a3,s7
   10cbe:	004cdc93          	srli	s9,s9,0x4
   10cc2:	fecd0fa3          	sb	a2,-1(s10)
   10cc6:	019be6b3          	or	a3,s7,s9
   10cca:	1d7d                	addi	s10,s10,-1
   10ccc:	fee9                	bnez	a3,10ca6 <_vfprintf_r+0x89e>
   10cce:	1b1c                	addi	a5,sp,432
   10cd0:	41a78cb3          	sub	s9,a5,s10
   10cd4:	84ba                	mv	s1,a4
   10cd6:	bc59                	j	1076c <_vfprintf_r+0x364>
   10cd8:	06500693          	li	a3,101
   10cdc:	bf86d5e3          	bge	a3,s8,108c6 <_vfprintf_r+0x4be>
   10ce0:	56ce                	lw	a3,240(sp)
   10ce2:	110c                	addi	a1,sp,160
   10ce4:	1908                	addi	a0,sp,176
   10ce6:	d936                	sw	a3,176(sp)
   10ce8:	56de                	lw	a3,244(sp)
   10cea:	ce3a                	sw	a4,28(sp)
   10cec:	c446                	sw	a7,8(sp)
   10cee:	db36                	sw	a3,180(sp)
   10cf0:	56ee                	lw	a3,248(sp)
   10cf2:	d102                	sw	zero,160(sp)
   10cf4:	d302                	sw	zero,164(sp)
   10cf6:	dd36                	sw	a3,184(sp)
   10cf8:	56fe                	lw	a3,252(sp)
   10cfa:	d502                	sw	zero,168(sp)
   10cfc:	d702                	sw	zero,172(sp)
   10cfe:	df36                	sw	a3,188(sp)
   10d00:	35e0a0ef          	jal	ra,1b05e <__eqtf2>
   10d04:	48a2                	lw	a7,8(sp)
   10d06:	4772                	lw	a4,28(sp)
   10d08:	26051463          	bnez	a0,10f70 <_vfprintf_r+0xb68>
   10d0c:	57ae                	lw	a5,232(sp)
   10d0e:	66f9                	lui	a3,0x1e
   10d10:	92468693          	addi	a3,a3,-1756 # 1d924 <__clzsi2+0x96>
   10d14:	00d8a023          	sw	a3,0(a7)
   10d18:	0705                	addi	a4,a4,1
   10d1a:	4685                	li	a3,1
   10d1c:	0785                	addi	a5,a5,1
   10d1e:	00d8a223          	sw	a3,4(a7)
   10d22:	d7ba                	sw	a4,236(sp)
   10d24:	d5be                	sw	a5,232(sp)
   10d26:	469d                	li	a3,7
   10d28:	08a1                	addi	a7,a7,8
   10d2a:	16f6cee3          	blt	a3,a5,116a6 <_vfprintf_r+0x129e>
   10d2e:	47be                	lw	a5,204(sp)
   10d30:	46c2                	lw	a3,16(sp)
   10d32:	3cd7db63          	bge	a5,a3,11108 <_vfprintf_r+0xd00>
   10d36:	4786                	lw	a5,64(sp)
   10d38:	56f2                	lw	a3,60(sp)
   10d3a:	08a1                	addi	a7,a7,8
   10d3c:	fef8ac23          	sw	a5,-8(a7)
   10d40:	57ae                	lw	a5,232(sp)
   10d42:	9736                	add	a4,a4,a3
   10d44:	fed8ae23          	sw	a3,-4(a7)
   10d48:	0785                	addi	a5,a5,1
   10d4a:	d7ba                	sw	a4,236(sp)
   10d4c:	d5be                	sw	a5,232(sp)
   10d4e:	469d                	li	a3,7
   10d50:	4af6c163          	blt	a3,a5,111f2 <_vfprintf_r+0xdea>
   10d54:	47c2                	lw	a5,16(sp)
   10d56:	fff78c93          	addi	s9,a5,-1
   10d5a:	8d905ce3          	blez	s9,10632 <_vfprintf_r+0x22a>
   10d5e:	46c1                	li	a3,16
   10d60:	57ae                	lw	a5,232(sp)
   10d62:	1596dde3          	bge	a3,s9,116bc <_vfprintf_r+0x12b4>
   10d66:	4d41                	li	s10,16
   10d68:	4c1d                	li	s8,7
   10d6a:	a021                	j	10d72 <_vfprintf_r+0x96a>
   10d6c:	1cc1                	addi	s9,s9,-16
   10d6e:	159d57e3          	bge	s10,s9,116bc <_vfprintf_r+0x12b4>
   10d72:	0741                	addi	a4,a4,16
   10d74:	0785                	addi	a5,a5,1
   10d76:	0128a023          	sw	s2,0(a7)
   10d7a:	01a8a223          	sw	s10,4(a7)
   10d7e:	d7ba                	sw	a4,236(sp)
   10d80:	d5be                	sw	a5,232(sp)
   10d82:	08a1                	addi	a7,a7,8
   10d84:	fefc54e3          	bge	s8,a5,10d6c <_vfprintf_r+0x964>
   10d88:	11d0                	addi	a2,sp,228
   10d8a:	85d2                	mv	a1,s4
   10d8c:	8556                	mv	a0,s5
   10d8e:	13c070ef          	jal	ra,17eca <__sprint_r>
   10d92:	10051b63          	bnez	a0,10ea8 <_vfprintf_r+0xaa0>
   10d96:	573e                	lw	a4,236(sp)
   10d98:	57ae                	lw	a5,232(sp)
   10d9a:	88da                	mv	a7,s6
   10d9c:	bfc1                	j	10d6c <_vfprintf_r+0x964>
   10d9e:	41798833          	sub	a6,s3,s7
   10da2:	870053e3          	blez	a6,10608 <_vfprintf_r+0x200>
   10da6:	4641                	li	a2,16
   10da8:	56ae                	lw	a3,232(sp)
   10daa:	05065563          	bge	a2,a6,10df4 <_vfprintf_r+0x9ec>
   10dae:	4ec1                	li	t4,16
   10db0:	4f1d                	li	t5,7
   10db2:	a021                	j	10dba <_vfprintf_r+0x9b2>
   10db4:	1841                	addi	a6,a6,-16
   10db6:	030edf63          	bge	t4,a6,10df4 <_vfprintf_r+0x9ec>
   10dba:	0741                	addi	a4,a4,16
   10dbc:	0685                	addi	a3,a3,1
   10dbe:	0128a023          	sw	s2,0(a7)
   10dc2:	01d8a223          	sw	t4,4(a7)
   10dc6:	d7ba                	sw	a4,236(sp)
   10dc8:	d5b6                	sw	a3,232(sp)
   10dca:	08a1                	addi	a7,a7,8
   10dcc:	fedf54e3          	bge	t5,a3,10db4 <_vfprintf_r+0x9ac>
   10dd0:	11d0                	addi	a2,sp,228
   10dd2:	85d2                	mv	a1,s4
   10dd4:	8556                	mv	a0,s5
   10dd6:	ce42                	sw	a6,28(sp)
   10dd8:	c41a                	sw	t1,8(sp)
   10dda:	0f0070ef          	jal	ra,17eca <__sprint_r>
   10dde:	e569                	bnez	a0,10ea8 <_vfprintf_r+0xaa0>
   10de0:	4872                	lw	a6,28(sp)
   10de2:	4ec1                	li	t4,16
   10de4:	573e                	lw	a4,236(sp)
   10de6:	1841                	addi	a6,a6,-16
   10de8:	56ae                	lw	a3,232(sp)
   10dea:	4322                	lw	t1,8(sp)
   10dec:	88da                	mv	a7,s6
   10dee:	4f1d                	li	t5,7
   10df0:	fd0ec5e3          	blt	t4,a6,10dba <_vfprintf_r+0x9b2>
   10df4:	9742                	add	a4,a4,a6
   10df6:	0685                	addi	a3,a3,1
   10df8:	0128a023          	sw	s2,0(a7)
   10dfc:	0108a223          	sw	a6,4(a7)
   10e00:	d7ba                	sw	a4,236(sp)
   10e02:	d5b6                	sw	a3,232(sp)
   10e04:	461d                	li	a2,7
   10e06:	08a1                	addi	a7,a7,8
   10e08:	80d650e3          	bge	a2,a3,10608 <_vfprintf_r+0x200>
   10e0c:	11d0                	addi	a2,sp,228
   10e0e:	85d2                	mv	a1,s4
   10e10:	8556                	mv	a0,s5
   10e12:	c41a                	sw	t1,8(sp)
   10e14:	0b6070ef          	jal	ra,17eca <__sprint_r>
   10e18:	e941                	bnez	a0,10ea8 <_vfprintf_r+0xaa0>
   10e1a:	573e                	lw	a4,236(sp)
   10e1c:	4322                	lw	t1,8(sp)
   10e1e:	88da                	mv	a7,s6
   10e20:	fe8ff06f          	j	10608 <_vfprintf_r+0x200>
   10e24:	4641                	li	a2,16
   10e26:	56ae                	lw	a3,232(sp)
   10e28:	04665363          	bge	a2,t1,10e6e <_vfprintf_r+0xa66>
   10e2c:	4841                	li	a6,16
   10e2e:	4e9d                	li	t4,7
   10e30:	a021                	j	10e38 <_vfprintf_r+0xa30>
   10e32:	1341                	addi	t1,t1,-16
   10e34:	02685d63          	bge	a6,t1,10e6e <_vfprintf_r+0xa66>
   10e38:	0741                	addi	a4,a4,16
   10e3a:	0685                	addi	a3,a3,1
   10e3c:	0128a023          	sw	s2,0(a7)
   10e40:	0108a223          	sw	a6,4(a7)
   10e44:	d7ba                	sw	a4,236(sp)
   10e46:	d5b6                	sw	a3,232(sp)
   10e48:	08a1                	addi	a7,a7,8
   10e4a:	feded4e3          	bge	t4,a3,10e32 <_vfprintf_r+0xa2a>
   10e4e:	11d0                	addi	a2,sp,228
   10e50:	85d2                	mv	a1,s4
   10e52:	8556                	mv	a0,s5
   10e54:	c41a                	sw	t1,8(sp)
   10e56:	074070ef          	jal	ra,17eca <__sprint_r>
   10e5a:	e539                	bnez	a0,10ea8 <_vfprintf_r+0xaa0>
   10e5c:	4322                	lw	t1,8(sp)
   10e5e:	4841                	li	a6,16
   10e60:	573e                	lw	a4,236(sp)
   10e62:	1341                	addi	t1,t1,-16
   10e64:	56ae                	lw	a3,232(sp)
   10e66:	88da                	mv	a7,s6
   10e68:	4e9d                	li	t4,7
   10e6a:	fc6847e3          	blt	a6,t1,10e38 <_vfprintf_r+0xa30>
   10e6e:	971a                	add	a4,a4,t1
   10e70:	0685                	addi	a3,a3,1
   10e72:	0128a023          	sw	s2,0(a7)
   10e76:	0068a223          	sw	t1,4(a7)
   10e7a:	d7ba                	sw	a4,236(sp)
   10e7c:	d5b6                	sw	a3,232(sp)
   10e7e:	461d                	li	a2,7
   10e80:	08a1                	addi	a7,a7,8
   10e82:	f8d65763          	bge	a2,a3,10610 <_vfprintf_r+0x208>
   10e86:	11d0                	addi	a2,sp,228
   10e88:	85d2                	mv	a1,s4
   10e8a:	8556                	mv	a0,s5
   10e8c:	03e070ef          	jal	ra,17eca <__sprint_r>
   10e90:	ed01                	bnez	a0,10ea8 <_vfprintf_r+0xaa0>
   10e92:	573e                	lw	a4,236(sp)
   10e94:	88da                	mv	a7,s6
   10e96:	f7aff06f          	j	10610 <_vfprintf_r+0x208>
   10e9a:	11d0                	addi	a2,sp,228
   10e9c:	85d2                	mv	a1,s4
   10e9e:	8556                	mv	a0,s5
   10ea0:	02a070ef          	jal	ra,17eca <__sprint_r>
   10ea4:	fa050563          	beqz	a0,1064e <_vfprintf_r+0x246>
   10ea8:	fc0d8463          	beqz	s11,10670 <_vfprintf_r+0x268>
   10eac:	85ee                	mv	a1,s11
   10eae:	8556                	mv	a0,s5
   10eb0:	1b7010ef          	jal	ra,12866 <_free_r>
   10eb4:	fbcff06f          	j	10670 <_vfprintf_r+0x268>
   10eb8:	8726                	mv	a4,s1
   10eba:	be55                	j	10a6e <_vfprintf_r+0x666>
   10ebc:	67f9                	lui	a5,0x1e
   10ebe:	4641                	li	a2,16
   10ec0:	56ae                	lw	a3,232(sp)
   10ec2:	b2c78e93          	addi	t4,a5,-1236 # 1db2c <blanks.1>
   10ec6:	4f41                	li	t5,16
   10ec8:	439d                	li	t2,7
   10eca:	01064663          	blt	a2,a6,10ed6 <_vfprintf_r+0xace>
   10ece:	a0b9                	j	10f1c <_vfprintf_r+0xb14>
   10ed0:	1841                	addi	a6,a6,-16
   10ed2:	050f5563          	bge	t5,a6,10f1c <_vfprintf_r+0xb14>
   10ed6:	0741                	addi	a4,a4,16
   10ed8:	0685                	addi	a3,a3,1
   10eda:	01d8a023          	sw	t4,0(a7)
   10ede:	01e8a223          	sw	t5,4(a7)
   10ee2:	d7ba                	sw	a4,236(sp)
   10ee4:	d5b6                	sw	a3,232(sp)
   10ee6:	08a1                	addi	a7,a7,8
   10ee8:	fed3d4e3          	bge	t2,a3,10ed0 <_vfprintf_r+0xac8>
   10eec:	11d0                	addi	a2,sp,228
   10eee:	85d2                	mv	a1,s4
   10ef0:	8556                	mv	a0,s5
   10ef2:	d476                	sw	t4,40(sp)
   10ef4:	d242                	sw	a6,36(sp)
   10ef6:	d01a                	sw	t1,32(sp)
   10ef8:	ce7e                	sw	t6,28(sp)
   10efa:	c416                	sw	t0,8(sp)
   10efc:	7cf060ef          	jal	ra,17eca <__sprint_r>
   10f00:	f545                	bnez	a0,10ea8 <_vfprintf_r+0xaa0>
   10f02:	5812                	lw	a6,36(sp)
   10f04:	4f41                	li	t5,16
   10f06:	573e                	lw	a4,236(sp)
   10f08:	1841                	addi	a6,a6,-16
   10f0a:	56ae                	lw	a3,232(sp)
   10f0c:	5ea2                	lw	t4,40(sp)
   10f0e:	5302                	lw	t1,32(sp)
   10f10:	4ff2                	lw	t6,28(sp)
   10f12:	42a2                	lw	t0,8(sp)
   10f14:	88da                	mv	a7,s6
   10f16:	439d                	li	t2,7
   10f18:	fb0f4fe3          	blt	t5,a6,10ed6 <_vfprintf_r+0xace>
   10f1c:	9742                	add	a4,a4,a6
   10f1e:	0685                	addi	a3,a3,1
   10f20:	01d8a023          	sw	t4,0(a7)
   10f24:	0108a223          	sw	a6,4(a7)
   10f28:	d7ba                	sw	a4,236(sp)
   10f2a:	d5b6                	sw	a3,232(sp)
   10f2c:	461d                	li	a2,7
   10f2e:	08a1                	addi	a7,a7,8
   10f30:	e8d65463          	bge	a2,a3,105b8 <_vfprintf_r+0x1b0>
   10f34:	11d0                	addi	a2,sp,228
   10f36:	85d2                	mv	a1,s4
   10f38:	8556                	mv	a0,s5
   10f3a:	d01a                	sw	t1,32(sp)
   10f3c:	ce7e                	sw	t6,28(sp)
   10f3e:	c416                	sw	t0,8(sp)
   10f40:	78b060ef          	jal	ra,17eca <__sprint_r>
   10f44:	f135                	bnez	a0,10ea8 <_vfprintf_r+0xaa0>
   10f46:	573e                	lw	a4,236(sp)
   10f48:	5302                	lw	t1,32(sp)
   10f4a:	4ff2                	lw	t6,28(sp)
   10f4c:	42a2                	lw	t0,8(sp)
   10f4e:	88da                	mv	a7,s6
   10f50:	e68ff06f          	j	105b8 <_vfprintf_r+0x1b0>
   10f54:	11d0                	addi	a2,sp,228
   10f56:	85d2                	mv	a1,s4
   10f58:	8556                	mv	a0,s5
   10f5a:	ce1a                	sw	t1,28(sp)
   10f5c:	c47e                	sw	t6,8(sp)
   10f5e:	76d060ef          	jal	ra,17eca <__sprint_r>
   10f62:	f139                	bnez	a0,10ea8 <_vfprintf_r+0xaa0>
   10f64:	573e                	lw	a4,236(sp)
   10f66:	4372                	lw	t1,28(sp)
   10f68:	4fa2                	lw	t6,8(sp)
   10f6a:	88da                	mv	a7,s6
   10f6c:	e94ff06f          	j	10600 <_vfprintf_r+0x1f8>
   10f70:	45be                	lw	a1,204(sp)
   10f72:	6eb05163          	blez	a1,11654 <_vfprintf_r+0x124c>
   10f76:	57b2                	lw	a5,44(sp)
   10f78:	46c2                	lw	a3,16(sp)
   10f7a:	8cbe                	mv	s9,a5
   10f7c:	20f6ca63          	blt	a3,a5,11190 <_vfprintf_r+0xd88>
   10f80:	01905f63          	blez	s9,10f9e <_vfprintf_r+0xb96>
   10f84:	56ae                	lw	a3,232(sp)
   10f86:	9766                	add	a4,a4,s9
   10f88:	01a8a023          	sw	s10,0(a7)
   10f8c:	0685                	addi	a3,a3,1
   10f8e:	0198a223          	sw	s9,4(a7)
   10f92:	d7ba                	sw	a4,236(sp)
   10f94:	d5b6                	sw	a3,232(sp)
   10f96:	461d                	li	a2,7
   10f98:	08a1                	addi	a7,a7,8
   10f9a:	1cd641e3          	blt	a2,a3,1195c <_vfprintf_r+0x1554>
   10f9e:	fffcc693          	not	a3,s9
   10fa2:	57b2                	lw	a5,44(sp)
   10fa4:	86fd                	srai	a3,a3,0x1f
   10fa6:	00dcfcb3          	and	s9,s9,a3
   10faa:	41978cb3          	sub	s9,a5,s9
   10fae:	29904363          	bgtz	s9,11234 <_vfprintf_r+0xe2c>
   10fb2:	57b2                	lw	a5,44(sp)
   10fb4:	4004f693          	andi	a3,s1,1024
   10fb8:	00fd0c33          	add	s8,s10,a5
   10fbc:	040696e3          	bnez	a3,11808 <_vfprintf_r+0x1400>
   10fc0:	4cbe                	lw	s9,204(sp)
   10fc2:	47c2                	lw	a5,16(sp)
   10fc4:	00fcc663          	blt	s9,a5,10fd0 <_vfprintf_r+0xbc8>
   10fc8:	0014f693          	andi	a3,s1,1
   10fcc:	1a0685e3          	beqz	a3,11976 <_vfprintf_r+0x156e>
   10fd0:	4686                	lw	a3,64(sp)
   10fd2:	57f2                	lw	a5,60(sp)
   10fd4:	461d                	li	a2,7
   10fd6:	00d8a023          	sw	a3,0(a7)
   10fda:	56ae                	lw	a3,232(sp)
   10fdc:	973e                	add	a4,a4,a5
   10fde:	00f8a223          	sw	a5,4(a7)
   10fe2:	0685                	addi	a3,a3,1
   10fe4:	d7ba                	sw	a4,236(sp)
   10fe6:	d5b6                	sw	a3,232(sp)
   10fe8:	08a1                	addi	a7,a7,8
   10fea:	4ed645e3          	blt	a2,a3,11cd4 <_vfprintf_r+0x18cc>
   10fee:	46c2                	lw	a3,16(sp)
   10ff0:	00dd07b3          	add	a5,s10,a3
   10ff4:	41968cb3          	sub	s9,a3,s9
   10ff8:	41878d33          	sub	s10,a5,s8
   10ffc:	01acd363          	bge	s9,s10,11002 <_vfprintf_r+0xbfa>
   11000:	8d66                	mv	s10,s9
   11002:	01a05f63          	blez	s10,11020 <_vfprintf_r+0xc18>
   11006:	56ae                	lw	a3,232(sp)
   11008:	976a                	add	a4,a4,s10
   1100a:	0188a023          	sw	s8,0(a7)
   1100e:	0685                	addi	a3,a3,1
   11010:	01a8a223          	sw	s10,4(a7)
   11014:	d7ba                	sw	a4,236(sp)
   11016:	d5b6                	sw	a3,232(sp)
   11018:	461d                	li	a2,7
   1101a:	08a1                	addi	a7,a7,8
   1101c:	50d641e3          	blt	a2,a3,11d1e <_vfprintf_r+0x1916>
   11020:	fffd4693          	not	a3,s10
   11024:	86fd                	srai	a3,a3,0x1f
   11026:	00dd77b3          	and	a5,s10,a3
   1102a:	40fc8cb3          	sub	s9,s9,a5
   1102e:	e1905263          	blez	s9,10632 <_vfprintf_r+0x22a>
   11032:	46c1                	li	a3,16
   11034:	57ae                	lw	a5,232(sp)
   11036:	6996d363          	bge	a3,s9,116bc <_vfprintf_r+0x12b4>
   1103a:	4d41                	li	s10,16
   1103c:	4c1d                	li	s8,7
   1103e:	a021                	j	11046 <_vfprintf_r+0xc3e>
   11040:	1cc1                	addi	s9,s9,-16
   11042:	679d5d63          	bge	s10,s9,116bc <_vfprintf_r+0x12b4>
   11046:	0741                	addi	a4,a4,16
   11048:	0785                	addi	a5,a5,1
   1104a:	0128a023          	sw	s2,0(a7)
   1104e:	01a8a223          	sw	s10,4(a7)
   11052:	d7ba                	sw	a4,236(sp)
   11054:	d5be                	sw	a5,232(sp)
   11056:	08a1                	addi	a7,a7,8
   11058:	fefc54e3          	bge	s8,a5,11040 <_vfprintf_r+0xc38>
   1105c:	11d0                	addi	a2,sp,228
   1105e:	85d2                	mv	a1,s4
   11060:	8556                	mv	a0,s5
   11062:	669060ef          	jal	ra,17eca <__sprint_r>
   11066:	e40511e3          	bnez	a0,10ea8 <_vfprintf_r+0xaa0>
   1106a:	573e                	lw	a4,236(sp)
   1106c:	57ae                	lw	a5,232(sp)
   1106e:	88da                	mv	a7,s6
   11070:	bfc1                	j	11040 <_vfprintf_r+0xc38>
   11072:	0014f593          	andi	a1,s1,1
   11076:	860593e3          	bnez	a1,108dc <_vfprintf_r+0x4d4>
   1107a:	00d8a223          	sw	a3,4(a7)
   1107e:	d7ba                	sw	a4,236(sp)
   11080:	d5e6                	sw	s9,232(sp)
   11082:	479d                	li	a5,7
   11084:	8d97d7e3          	bge	a5,s9,10952 <_vfprintf_r+0x54a>
   11088:	11d0                	addi	a2,sp,228
   1108a:	85d2                	mv	a1,s4
   1108c:	8556                	mv	a0,s5
   1108e:	63d060ef          	jal	ra,17eca <__sprint_r>
   11092:	e0051be3          	bnez	a0,10ea8 <_vfprintf_r+0xaa0>
   11096:	573e                	lw	a4,236(sp)
   11098:	5cae                	lw	s9,232(sp)
   1109a:	8c5a                	mv	s8,s6
   1109c:	b85d                	j	10952 <_vfprintf_r+0x54a>
   1109e:	8ad05ae3          	blez	a3,10952 <_vfprintf_r+0x54a>
   110a2:	47c1                	li	a5,16
   110a4:	6cd7df63          	bge	a5,a3,11782 <_vfprintf_r+0x137a>
   110a8:	4d1d                	li	s10,7
   110aa:	a021                	j	110b2 <_vfprintf_r+0xcaa>
   110ac:	16c1                	addi	a3,a3,-16
   110ae:	6cd7da63          	bge	a5,a3,11782 <_vfprintf_r+0x137a>
   110b2:	0741                	addi	a4,a4,16
   110b4:	0c85                	addi	s9,s9,1
   110b6:	012c2023          	sw	s2,0(s8)
   110ba:	00fc2223          	sw	a5,4(s8)
   110be:	d7ba                	sw	a4,236(sp)
   110c0:	d5e6                	sw	s9,232(sp)
   110c2:	0c21                	addi	s8,s8,8
   110c4:	ff9d54e3          	bge	s10,s9,110ac <_vfprintf_r+0xca4>
   110c8:	11d0                	addi	a2,sp,228
   110ca:	85d2                	mv	a1,s4
   110cc:	8556                	mv	a0,s5
   110ce:	c436                	sw	a3,8(sp)
   110d0:	5fb060ef          	jal	ra,17eca <__sprint_r>
   110d4:	dc051ae3          	bnez	a0,10ea8 <_vfprintf_r+0xaa0>
   110d8:	573e                	lw	a4,236(sp)
   110da:	5cae                	lw	s9,232(sp)
   110dc:	46a2                	lw	a3,8(sp)
   110de:	8c5a                	mv	s8,s6
   110e0:	47c1                	li	a5,16
   110e2:	b7e9                	j	110ac <_vfprintf_r+0xca4>
   110e4:	46b2                	lw	a3,12(sp)
   110e6:	01077793          	andi	a5,a4,16
   110ea:	0006ab83          	lw	s7,0(a3)
   110ee:	0691                	addi	a3,a3,4
   110f0:	c636                	sw	a3,12(sp)
   110f2:	eb95                	bnez	a5,11126 <_vfprintf_r+0xd1e>
   110f4:	04077793          	andi	a5,a4,64
   110f8:	c395                	beqz	a5,1111c <_vfprintf_r+0xd14>
   110fa:	0bc2                	slli	s7,s7,0x10
   110fc:	010bdb93          	srli	s7,s7,0x10
   11100:	4c81                	li	s9,0
   11102:	4785                	li	a5,1
   11104:	ea8ff06f          	j	107ac <_vfprintf_r+0x3a4>
   11108:	0014f793          	andi	a5,s1,1
   1110c:	d2078363          	beqz	a5,10632 <_vfprintf_r+0x22a>
   11110:	b11d                	j	10d36 <_vfprintf_r+0x92e>
   11112:	00044e03          	lbu	t3,0(s0)
   11116:	c662                	sw	s8,12(sp)
   11118:	c28ff06f          	j	10540 <_vfprintf_r+0x138>
   1111c:	20077793          	andi	a5,a4,512
   11120:	c399                	beqz	a5,11126 <_vfprintf_r+0xd1e>
   11122:	0ffbfb93          	zext.b	s7,s7
   11126:	4c81                	li	s9,0
   11128:	4785                	li	a5,1
   1112a:	e82ff06f          	j	107ac <_vfprintf_r+0x3a4>
   1112e:	2004f793          	andi	a5,s1,512
   11132:	06079ce3          	bnez	a5,119aa <_vfprintf_r+0x15a2>
   11136:	41fbdc93          	srai	s9,s7,0x1f
   1113a:	87e6                	mv	a5,s9
   1113c:	e0aff06f          	j	10746 <_vfprintf_r+0x33e>
   11140:	2004f793          	andi	a5,s1,512
   11144:	06079be3          	bnez	a5,119ba <_vfprintf_r+0x15b2>
   11148:	4c81                	li	s9,0
   1114a:	e5cff06f          	j	107a6 <_vfprintf_r+0x39e>
   1114e:	47b2                	lw	a5,12(sp)
   11150:	4398                	lw	a4,0(a5)
   11152:	0791                	addi	a5,a5,4
   11154:	c63e                	sw	a5,12(sp)
   11156:	430c                	lw	a1,0(a4)
   11158:	4350                	lw	a2,4(a4)
   1115a:	4714                	lw	a3,8(a4)
   1115c:	4758                	lw	a4,12(a4)
   1115e:	ed0ff06f          	j	1082e <_vfprintf_r+0x426>
   11162:	4612                	lw	a2,4(sp)
   11164:	429c                	lw	a5,0(a3)
   11166:	c63a                	sw	a4,12(sp)
   11168:	41f65693          	srai	a3,a2,0x1f
   1116c:	c390                	sw	a2,0(a5)
   1116e:	c3d4                	sw	a3,4(a5)
   11170:	8d22                	mv	s10,s0
   11172:	ceeff06f          	j	10660 <_vfprintf_r+0x258>
   11176:	57e2                	lw	a5,56(sp)
   11178:	00044e03          	lbu	t3,0(s0)
   1117c:	bc078263          	beqz	a5,10540 <_vfprintf_r+0x138>
   11180:	0007c703          	lbu	a4,0(a5)
   11184:	ba070e63          	beqz	a4,10540 <_vfprintf_r+0x138>
   11188:	4004e493          	ori	s1,s1,1024
   1118c:	bb4ff06f          	j	10540 <_vfprintf_r+0x138>
   11190:	8cb6                	mv	s9,a3
   11192:	df9049e3          	bgtz	s9,10f84 <_vfprintf_r+0xb7c>
   11196:	b521                	j	10f9e <_vfprintf_r+0xb96>
   11198:	8726                	mv	a4,s1
   1119a:	bca1                	j	10bf2 <_vfprintf_r+0x7ea>
   1119c:	67f9                	lui	a5,0x1e
   1119e:	8f478793          	addi	a5,a5,-1804 # 1d8f4 <__clzsi2+0x66>
   111a2:	cc3e                	sw	a5,24(sp)
   111a4:	0204f793          	andi	a5,s1,32
   111a8:	2c078e63          	beqz	a5,11484 <_vfprintf_r+0x107c>
   111ac:	47b2                	lw	a5,12(sp)
   111ae:	079d                	addi	a5,a5,7
   111b0:	9be1                	andi	a5,a5,-8
   111b2:	0007ab83          	lw	s7,0(a5)
   111b6:	0047ac83          	lw	s9,4(a5)
   111ba:	07a1                	addi	a5,a5,8
   111bc:	c63e                	sw	a5,12(sp)
   111be:	0014f793          	andi	a5,s1,1
   111c2:	cf81                	beqz	a5,111da <_vfprintf_r+0xdd2>
   111c4:	019be7b3          	or	a5,s7,s9
   111c8:	cb89                	beqz	a5,111da <_vfprintf_r+0xdd2>
   111ca:	03000793          	li	a5,48
   111ce:	0cf10423          	sb	a5,200(sp)
   111d2:	0d8104a3          	sb	s8,201(sp)
   111d6:	0024e493          	ori	s1,s1,2
   111da:	bff4f713          	andi	a4,s1,-1025
   111de:	4789                	li	a5,2
   111e0:	dccff06f          	j	107ac <_vfprintf_r+0x3a4>
   111e4:	00144e03          	lbu	t3,1(s0)
   111e8:	2004e493          	ori	s1,s1,512
   111ec:	0405                	addi	s0,s0,1
   111ee:	b52ff06f          	j	10540 <_vfprintf_r+0x138>
   111f2:	11d0                	addi	a2,sp,228
   111f4:	85d2                	mv	a1,s4
   111f6:	8556                	mv	a0,s5
   111f8:	4d3060ef          	jal	ra,17eca <__sprint_r>
   111fc:	ca0516e3          	bnez	a0,10ea8 <_vfprintf_r+0xaa0>
   11200:	573e                	lw	a4,236(sp)
   11202:	88da                	mv	a7,s6
   11204:	be81                	j	10d54 <_vfprintf_r+0x94c>
   11206:	00144e03          	lbu	t3,1(s0)
   1120a:	0204e493          	ori	s1,s1,32
   1120e:	0405                	addi	s0,s0,1
   11210:	b30ff06f          	j	10540 <_vfprintf_r+0x138>
   11214:	67f9                	lui	a5,0x1e
   11216:	90878793          	addi	a5,a5,-1784 # 1d908 <__clzsi2+0x7a>
   1121a:	cc3e                	sw	a5,24(sp)
   1121c:	b761                	j	111a4 <_vfprintf_r+0xd9c>
   1121e:	4799                	li	a5,6
   11220:	8c9a                	mv	s9,t1
   11222:	7467e863          	bltu	a5,t1,11972 <_vfprintf_r+0x156a>
   11226:	67f9                	lui	a5,0x1e
   11228:	8be6                	mv	s7,s9
   1122a:	c636                	sw	a3,12(sp)
   1122c:	91c78d13          	addi	s10,a5,-1764 # 1d91c <__clzsi2+0x8e>
   11230:	b62ff06f          	j	10592 <_vfprintf_r+0x18a>
   11234:	4641                	li	a2,16
   11236:	56ae                	lw	a3,232(sp)
   11238:	5b965163          	bge	a2,s9,117da <_vfprintf_r+0x13d2>
   1123c:	4841                	li	a6,16
   1123e:	4c1d                	li	s8,7
   11240:	a021                	j	11248 <_vfprintf_r+0xe40>
   11242:	1cc1                	addi	s9,s9,-16
   11244:	59985b63          	bge	a6,s9,117da <_vfprintf_r+0x13d2>
   11248:	0741                	addi	a4,a4,16
   1124a:	0685                	addi	a3,a3,1
   1124c:	0128a023          	sw	s2,0(a7)
   11250:	0108a223          	sw	a6,4(a7)
   11254:	d7ba                	sw	a4,236(sp)
   11256:	d5b6                	sw	a3,232(sp)
   11258:	08a1                	addi	a7,a7,8
   1125a:	fedc54e3          	bge	s8,a3,11242 <_vfprintf_r+0xe3a>
   1125e:	11d0                	addi	a2,sp,228
   11260:	85d2                	mv	a1,s4
   11262:	8556                	mv	a0,s5
   11264:	467060ef          	jal	ra,17eca <__sprint_r>
   11268:	c40510e3          	bnez	a0,10ea8 <_vfprintf_r+0xaa0>
   1126c:	573e                	lw	a4,236(sp)
   1126e:	56ae                	lw	a3,232(sp)
   11270:	88da                	mv	a7,s6
   11272:	4841                	li	a6,16
   11274:	b7f9                	j	11242 <_vfprintf_r+0xe3a>
   11276:	07800793          	li	a5,120
   1127a:	03000713          	li	a4,48
   1127e:	0cf104a3          	sb	a5,201(sp)
   11282:	0024e793          	ori	a5,s1,2
   11286:	0ce10423          	sb	a4,200(sp)
   1128a:	d4be                	sw	a5,104(sp)
   1128c:	06300713          	li	a4,99
   11290:	4d81                	li	s11,0
   11292:	14c10d13          	addi	s10,sp,332
   11296:	76674b63          	blt	a4,t1,11a0c <_vfprintf_r+0x1604>
   1129a:	5efe                	lw	t4,252(sp)
   1129c:	fdfc7793          	andi	a5,s8,-33
   112a0:	d2be                	sw	a5,100(sp)
   112a2:	de82                	sw	zero,124(sp)
   112a4:	5f4e                	lw	t5,240(sp)
   112a6:	5fde                	lw	t6,244(sp)
   112a8:	52ee                	lw	t0,248(sp)
   112aa:	1024e493          	ori	s1,s1,258
   112ae:	720ecb63          	bltz	t4,119e4 <_vfprintf_r+0x15dc>
   112b2:	06100713          	li	a4,97
   112b6:	3eec0ae3          	beq	s8,a4,11eaa <_vfprintf_r+0x1aa2>
   112ba:	fbfc0713          	addi	a4,s8,-65
   112be:	02500693          	li	a3,37
   112c2:	00e6e963          	bltu	a3,a4,112d4 <_vfprintf_r+0xecc>
   112c6:	66f9                	lui	a3,0x1e
   112c8:	070a                	slli	a4,a4,0x2
   112ca:	a9468693          	addi	a3,a3,-1388 # 1da94 <__clzsi2+0x206>
   112ce:	9736                	add	a4,a4,a3
   112d0:	4318                	lw	a4,0(a4)
   112d2:	8702                	jr	a4
   112d4:	869a                	mv	a3,t1
   112d6:	4609                	li	a2,2
   112d8:	0b010b93          	addi	s7,sp,176
   112dc:	099c                	addi	a5,sp,208
   112de:	01f8                	addi	a4,sp,204
   112e0:	0dc10813          	addi	a6,sp,220
   112e4:	85de                	mv	a1,s7
   112e6:	8556                	mv	a0,s5
   112e8:	d646                	sw	a7,44(sp)
   112ea:	d41a                	sw	t1,40(sp)
   112ec:	d236                	sw	a3,36(sp)
   112ee:	d97a                	sw	t5,176(sp)
   112f0:	d07a                	sw	t5,32(sp)
   112f2:	db7e                	sw	t6,180(sp)
   112f4:	ce7e                	sw	t6,28(sp)
   112f6:	dd16                	sw	t0,184(sp)
   112f8:	c816                	sw	t0,16(sp)
   112fa:	df76                	sw	t4,188(sp)
   112fc:	c476                	sw	t4,8(sp)
   112fe:	213020ef          	jal	ra,13d10 <_ldtoa_r>
   11302:	5796                	lw	a5,100(sp)
   11304:	04700713          	li	a4,71
   11308:	4ea2                	lw	t4,8(sp)
   1130a:	42c2                	lw	t0,16(sp)
   1130c:	4ff2                	lw	t6,28(sp)
   1130e:	5f02                	lw	t5,32(sp)
   11310:	5692                	lw	a3,36(sp)
   11312:	5322                	lw	t1,40(sp)
   11314:	58b2                	lw	a7,44(sp)
   11316:	8d2a                	mv	s10,a0
   11318:	18e785e3          	beq	a5,a4,11ca2 <_vfprintf_r+0x189a>
   1131c:	04600713          	li	a4,70
   11320:	00d50833          	add	a6,a0,a3
   11324:	70e79263          	bne	a5,a4,11a28 <_vfprintf_r+0x1620>
   11328:	00054603          	lbu	a2,0(a0) # 1f000 <__FRAME_END__>
   1132c:	03000713          	li	a4,48
   11330:	46e608e3          	beq	a2,a4,11fa0 <_vfprintf_r+0x1b98>
   11334:	0a010c93          	addi	s9,sp,160
   11338:	473e                	lw	a4,204(sp)
   1133a:	983a                	add	a6,a6,a4
   1133c:	85e6                	mv	a1,s9
   1133e:	855e                	mv	a0,s7
   11340:	ce42                	sw	a6,28(sp)
   11342:	c846                	sw	a7,16(sp)
   11344:	c41a                	sw	t1,8(sp)
   11346:	d97a                	sw	t5,176(sp)
   11348:	db7e                	sw	t6,180(sp)
   1134a:	dd16                	sw	t0,184(sp)
   1134c:	df76                	sw	t4,188(sp)
   1134e:	d102                	sw	zero,160(sp)
   11350:	d302                	sw	zero,164(sp)
   11352:	d502                	sw	zero,168(sp)
   11354:	d702                	sw	zero,172(sp)
   11356:	509090ef          	jal	ra,1b05e <__eqtf2>
   1135a:	4872                	lw	a6,28(sp)
   1135c:	4322                	lw	t1,8(sp)
   1135e:	48c2                	lw	a7,16(sp)
   11360:	8742                	mv	a4,a6
   11362:	cd11                	beqz	a0,1137e <_vfprintf_r+0xf76>
   11364:	477e                	lw	a4,220(sp)
   11366:	01077c63          	bgeu	a4,a6,1137e <_vfprintf_r+0xf76>
   1136a:	03000613          	li	a2,48
   1136e:	00170693          	addi	a3,a4,1
   11372:	cfb6                	sw	a3,220(sp)
   11374:	00c70023          	sb	a2,0(a4)
   11378:	477e                	lw	a4,220(sp)
   1137a:	ff076ae3          	bltu	a4,a6,1136e <_vfprintf_r+0xf66>
   1137e:	41a707b3          	sub	a5,a4,s10
   11382:	c83e                	sw	a5,16(sp)
   11384:	47be                	lw	a5,204(sp)
   11386:	04700713          	li	a4,71
   1138a:	d63e                	sw	a5,44(sp)
   1138c:	5796                	lw	a5,100(sp)
   1138e:	0ae786e3          	beq	a5,a4,11c3a <_vfprintf_r+0x1832>
   11392:	5796                	lw	a5,100(sp)
   11394:	04600713          	li	a4,70
   11398:	20e789e3          	beq	a5,a4,11daa <_vfprintf_r+0x19a2>
   1139c:	57b2                	lw	a5,44(sp)
   1139e:	04100593          	li	a1,65
   113a2:	0ffc7693          	zext.b	a3,s8
   113a6:	fff78713          	addi	a4,a5,-1
   113aa:	5796                	lw	a5,100(sp)
   113ac:	c7ba                	sw	a4,204(sp)
   113ae:	4601                	li	a2,0
   113b0:	00b79663          	bne	a5,a1,113bc <_vfprintf_r+0xfb4>
   113b4:	06bd                	addi	a3,a3,15
   113b6:	0ff6f693          	zext.b	a3,a3
   113ba:	4605                	li	a2,1
   113bc:	0cd10a23          	sb	a3,212(sp)
   113c0:	02b00693          	li	a3,43
   113c4:	00075763          	bgez	a4,113d2 <_vfprintf_r+0xfca>
   113c8:	57b2                	lw	a5,44(sp)
   113ca:	4705                	li	a4,1
   113cc:	02d00693          	li	a3,45
   113d0:	8f1d                	sub	a4,a4,a5
   113d2:	0cd10aa3          	sb	a3,213(sp)
   113d6:	46a5                	li	a3,9
   113d8:	20e6d0e3          	bge	a3,a4,11dd8 <_vfprintf_r+0x19d0>
   113dc:	0e310313          	addi	t1,sp,227
   113e0:	851a                	mv	a0,t1
   113e2:	4629                	li	a2,10
   113e4:	06300e93          	li	t4,99
   113e8:	02c766b3          	rem	a3,a4,a2
   113ec:	85aa                	mv	a1,a0
   113ee:	883a                	mv	a6,a4
   113f0:	157d                	addi	a0,a0,-1
   113f2:	03068693          	addi	a3,a3,48
   113f6:	fed58fa3          	sb	a3,-1(a1)
   113fa:	02c74733          	div	a4,a4,a2
   113fe:	ff0ec5e3          	blt	t4,a6,113e8 <_vfprintf_r+0xfe0>
   11402:	03070713          	addi	a4,a4,48
   11406:	0ff77613          	zext.b	a2,a4
   1140a:	fec50fa3          	sb	a2,-1(a0)
   1140e:	ffe58713          	addi	a4,a1,-2
   11412:	426770e3          	bgeu	a4,t1,12032 <_vfprintf_r+0x1c2a>
   11416:	0d610693          	addi	a3,sp,214
   1141a:	a019                	j	11420 <_vfprintf_r+0x1018>
   1141c:	00074603          	lbu	a2,0(a4)
   11420:	00c68023          	sb	a2,0(a3)
   11424:	0705                	addi	a4,a4,1
   11426:	0685                	addi	a3,a3,1
   11428:	fe671ae3          	bne	a4,t1,1141c <_vfprintf_r+0x1014>
   1142c:	0e510713          	addi	a4,sp,229
   11430:	0d610793          	addi	a5,sp,214
   11434:	8f0d                	sub	a4,a4,a1
   11436:	973e                	add	a4,a4,a5
   11438:	09d4                	addi	a3,sp,212
   1143a:	40d707b3          	sub	a5,a4,a3
   1143e:	c2be                	sw	a5,68(sp)
   11440:	47c2                	lw	a5,16(sp)
   11442:	4696                	lw	a3,68(sp)
   11444:	4705                	li	a4,1
   11446:	00d78cb3          	add	s9,a5,a3
   1144a:	22f75fe3          	bge	a4,a5,11e88 <_vfprintf_r+0x1a80>
   1144e:	57f2                	lw	a5,60(sp)
   11450:	9cbe                	add	s9,s9,a5
   11452:	57a6                	lw	a5,104(sp)
   11454:	fffccb93          	not	s7,s9
   11458:	41fbdb93          	srai	s7,s7,0x1f
   1145c:	bff7f493          	andi	s1,a5,-1025
   11460:	1004e493          	ori	s1,s1,256
   11464:	017cfbb3          	and	s7,s9,s7
   11468:	d802                	sw	zero,48(sp)
   1146a:	da02                	sw	zero,52(sp)
   1146c:	d602                	sw	zero,44(sp)
   1146e:	57f6                	lw	a5,124(sp)
   11470:	7e078163          	beqz	a5,11c52 <_vfprintf_r+0x184a>
   11474:	02d00713          	li	a4,45
   11478:	0ce103a3          	sb	a4,199(sp)
   1147c:	4301                	li	t1,0
   1147e:	0b85                	addi	s7,s7,1
   11480:	91cff06f          	j	1059c <_vfprintf_r+0x194>
   11484:	4732                	lw	a4,12(sp)
   11486:	0104f793          	andi	a5,s1,16
   1148a:	00072b83          	lw	s7,0(a4)
   1148e:	0711                	addi	a4,a4,4
   11490:	c63a                	sw	a4,12(sp)
   11492:	e7a9                	bnez	a5,114dc <_vfprintf_r+0x10d4>
   11494:	0404f793          	andi	a5,s1,64
   11498:	cf95                	beqz	a5,114d4 <_vfprintf_r+0x10cc>
   1149a:	0bc2                	slli	s7,s7,0x10
   1149c:	010bdb93          	srli	s7,s7,0x10
   114a0:	4c81                	li	s9,0
   114a2:	bb31                	j	111be <_vfprintf_r+0xdb6>
   114a4:	11d0                	addi	a2,sp,228
   114a6:	85d2                	mv	a1,s4
   114a8:	8556                	mv	a0,s5
   114aa:	221060ef          	jal	ra,17eca <__sprint_r>
   114ae:	9e051de3          	bnez	a0,10ea8 <_vfprintf_r+0xaa0>
   114b2:	573e                	lw	a4,236(sp)
   114b4:	5cae                	lw	s9,232(sp)
   114b6:	8c5a                	mv	s8,s6
   114b8:	c34ff06f          	j	108ec <_vfprintf_r+0x4e4>
   114bc:	11d0                	addi	a2,sp,228
   114be:	85d2                	mv	a1,s4
   114c0:	8556                	mv	a0,s5
   114c2:	209060ef          	jal	ra,17eca <__sprint_r>
   114c6:	9e0511e3          	bnez	a0,10ea8 <_vfprintf_r+0xaa0>
   114ca:	573e                	lw	a4,236(sp)
   114cc:	5cae                	lw	s9,232(sp)
   114ce:	8c5a                	mv	s8,s6
   114d0:	c38ff06f          	j	10908 <_vfprintf_r+0x500>
   114d4:	2004f793          	andi	a5,s1,512
   114d8:	4c079463          	bnez	a5,119a0 <_vfprintf_r+0x1598>
   114dc:	4c81                	li	s9,0
   114de:	b1c5                	j	111be <_vfprintf_r+0xdb6>
   114e0:	ccccd7b7          	lui	a5,0xccccd
   114e4:	100006b7          	lui	a3,0x10000
   114e8:	40077293          	andi	t0,a4,1024
   114ec:	c802                	sw	zero,16(sp)
   114ee:	1b08                	addi	a0,sp,432
   114f0:	16fd                	addi	a3,a3,-1
   114f2:	4f95                	li	t6,5
   114f4:	ccd78d93          	addi	s11,a5,-819 # cccccccd <__BSS_END__+0xcccad295>
   114f8:	ccc78393          	addi	t2,a5,-820
   114fc:	0ff00e13          	li	t3,255
   11500:	a0a1                	j	11548 <_vfprintf_r+0x1140>
   11502:	0104e4b3          	or	s1,s1,a6
   11506:	00dbf633          	and	a2,s7,a3
   1150a:	8cf5                	and	s1,s1,a3
   1150c:	9626                	add	a2,a2,s1
   1150e:	9676                	add	a2,a2,t4
   11510:	03f67633          	remu	a2,a2,t6
   11514:	40cb8633          	sub	a2,s7,a2
   11518:	00cbb533          	sltu	a0,s7,a2
   1151c:	40ac8533          	sub	a0,s9,a0
   11520:	03b50533          	mul	a0,a0,s11
   11524:	027605b3          	mul	a1,a2,t2
   11528:	03b63833          	mulhu	a6,a2,s11
   1152c:	95aa                	add	a1,a1,a0
   1152e:	03b60633          	mul	a2,a2,s11
   11532:	95c2                	add	a1,a1,a6
   11534:	01f59513          	slli	a0,a1,0x1f
   11538:	8185                	srli	a1,a1,0x1
   1153a:	8205                	srli	a2,a2,0x1
   1153c:	8d51                	or	a0,a0,a2
   1153e:	3e0c8b63          	beqz	s9,11934 <_vfprintf_r+0x152c>
   11542:	8baa                	mv	s7,a0
   11544:	8cae                	mv	s9,a1
   11546:	856a                	mv	a0,s10
   11548:	004c9493          	slli	s1,s9,0x4
   1154c:	01cbd813          	srli	a6,s7,0x1c
   11550:	0104e7b3          	or	a5,s1,a6
   11554:	8ff5                	and	a5,a5,a3
   11556:	00dbf633          	and	a2,s7,a3
   1155a:	963e                	add	a2,a2,a5
   1155c:	018cde93          	srli	t4,s9,0x18
   11560:	9676                	add	a2,a2,t4
   11562:	03f67633          	remu	a2,a2,t6
   11566:	47c2                	lw	a5,16(sp)
   11568:	fff50d13          	addi	s10,a0,-1
   1156c:	0785                	addi	a5,a5,1
   1156e:	c83e                	sw	a5,16(sp)
   11570:	40cb8633          	sub	a2,s7,a2
   11574:	00cbb5b3          	sltu	a1,s7,a2
   11578:	40bc85b3          	sub	a1,s9,a1
   1157c:	03b63f33          	mulhu	t5,a2,s11
   11580:	03b585b3          	mul	a1,a1,s11
   11584:	03b60633          	mul	a2,a2,s11
   11588:	95fa                	add	a1,a1,t5
   1158a:	05fe                	slli	a1,a1,0x1f
   1158c:	00165f13          	srli	t5,a2,0x1
   11590:	01e5ef33          	or	t5,a1,t5
   11594:	002f1613          	slli	a2,t5,0x2
   11598:	967a                	add	a2,a2,t5
   1159a:	0606                	slli	a2,a2,0x1
   1159c:	40cb8633          	sub	a2,s7,a2
   115a0:	03060613          	addi	a2,a2,48 # 2030 <main-0xe044>
   115a4:	fec50fa3          	sb	a2,-1(a0)
   115a8:	f4028de3          	beqz	t0,11502 <_vfprintf_r+0x10fa>
   115ac:	5662                	lw	a2,56(sp)
   115ae:	00064603          	lbu	a2,0(a2)
   115b2:	f4c798e3          	bne	a5,a2,11502 <_vfprintf_r+0x10fa>
   115b6:	f5c786e3          	beq	a5,t3,11502 <_vfprintf_r+0x10fa>
   115ba:	000c9563          	bnez	s9,115c4 <_vfprintf_r+0x11bc>
   115be:	47a5                	li	a5,9
   115c0:	f177f763          	bgeu	a5,s7,10cce <_vfprintf_r+0x8c6>
   115c4:	47a6                	lw	a5,72(sp)
   115c6:	45b6                	lw	a1,76(sp)
   115c8:	d442                	sw	a6,40(sp)
   115ca:	40fd0d33          	sub	s10,s10,a5
   115ce:	863e                	mv	a2,a5
   115d0:	856a                	mv	a0,s10
   115d2:	c876                	sw	t4,16(sp)
   115d4:	d216                	sw	t0,36(sp)
   115d6:	d046                	sw	a7,32(sp)
   115d8:	ce1a                	sw	t1,28(sp)
   115da:	c43a                	sw	a4,8(sp)
   115dc:	3d9040ef          	jal	ra,161b4 <strncpy>
   115e0:	5822                	lw	a6,40(sp)
   115e2:	100007b7          	lui	a5,0x10000
   115e6:	fff78693          	addi	a3,a5,-1 # fffffff <__BSS_END__+0xffe05c7>
   115ea:	4ec2                	lw	t4,16(sp)
   115ec:	0104e633          	or	a2,s1,a6
   115f0:	8e75                	and	a2,a2,a3
   115f2:	00dbf5b3          	and	a1,s7,a3
   115f6:	95b2                	add	a1,a1,a2
   115f8:	95f6                	add	a1,a1,t4
   115fa:	4f95                	li	t6,5
   115fc:	03f5f5b3          	remu	a1,a1,t6
   11600:	57e2                	lw	a5,56(sp)
   11602:	4722                	lw	a4,8(sp)
   11604:	4372                	lw	t1,28(sp)
   11606:	0017c603          	lbu	a2,1(a5)
   1160a:	5882                	lw	a7,32(sp)
   1160c:	5292                	lw	t0,36(sp)
   1160e:	00c03633          	snez	a2,a2
   11612:	97b2                	add	a5,a5,a2
   11614:	dc3e                	sw	a5,56(sp)
   11616:	ccccd7b7          	lui	a5,0xccccd
   1161a:	ccc78393          	addi	t2,a5,-820 # cccccccc <__BSS_END__+0xcccad294>
   1161e:	c802                	sw	zero,16(sp)
   11620:	0ff00e13          	li	t3,255
   11624:	40bb85b3          	sub	a1,s7,a1
   11628:	00bbb533          	sltu	a0,s7,a1
   1162c:	40ac8533          	sub	a0,s9,a0
   11630:	03b50533          	mul	a0,a0,s11
   11634:	02758633          	mul	a2,a1,t2
   11638:	03b5b833          	mulhu	a6,a1,s11
   1163c:	962a                	add	a2,a2,a0
   1163e:	03b58533          	mul	a0,a1,s11
   11642:	9642                	add	a2,a2,a6
   11644:	01f61813          	slli	a6,a2,0x1f
   11648:	00165593          	srli	a1,a2,0x1
   1164c:	8105                	srli	a0,a0,0x1
   1164e:	00a86533          	or	a0,a6,a0
   11652:	bdc5                	j	11542 <_vfprintf_r+0x113a>
   11654:	56ae                	lw	a3,232(sp)
   11656:	6679                	lui	a2,0x1e
   11658:	92460613          	addi	a2,a2,-1756 # 1d924 <__clzsi2+0x96>
   1165c:	00c8a023          	sw	a2,0(a7)
   11660:	0705                	addi	a4,a4,1
   11662:	4605                	li	a2,1
   11664:	0685                	addi	a3,a3,1
   11666:	00c8a223          	sw	a2,4(a7)
   1166a:	d7ba                	sw	a4,236(sp)
   1166c:	d5b6                	sw	a3,232(sp)
   1166e:	461d                	li	a2,7
   11670:	08a1                	addi	a7,a7,8
   11672:	2cd64663          	blt	a2,a3,1193e <_vfprintf_r+0x1536>
   11676:	e5e9                	bnez	a1,11740 <_vfprintf_r+0x1338>
   11678:	47c2                	lw	a5,16(sp)
   1167a:	0014f693          	andi	a3,s1,1
   1167e:	8edd                	or	a3,a3,a5
   11680:	e299                	bnez	a3,11686 <_vfprintf_r+0x127e>
   11682:	fb1fe06f          	j	10632 <_vfprintf_r+0x22a>
   11686:	4686                	lw	a3,64(sp)
   11688:	57f2                	lw	a5,60(sp)
   1168a:	461d                	li	a2,7
   1168c:	00d8a023          	sw	a3,0(a7)
   11690:	56ae                	lw	a3,232(sp)
   11692:	973e                	add	a4,a4,a5
   11694:	00f8a223          	sw	a5,4(a7)
   11698:	0685                	addi	a3,a3,1
   1169a:	d7ba                	sw	a4,236(sp)
   1169c:	d5b6                	sw	a3,232(sp)
   1169e:	34d64b63          	blt	a2,a3,119f4 <_vfprintf_r+0x15ec>
   116a2:	08a1                	addi	a7,a7,8
   116a4:	a87d                	j	11762 <_vfprintf_r+0x135a>
   116a6:	11d0                	addi	a2,sp,228
   116a8:	85d2                	mv	a1,s4
   116aa:	8556                	mv	a0,s5
   116ac:	01f060ef          	jal	ra,17eca <__sprint_r>
   116b0:	fe051c63          	bnez	a0,10ea8 <_vfprintf_r+0xaa0>
   116b4:	573e                	lw	a4,236(sp)
   116b6:	88da                	mv	a7,s6
   116b8:	e76ff06f          	j	10d2e <_vfprintf_r+0x926>
   116bc:	9766                	add	a4,a4,s9
   116be:	0785                	addi	a5,a5,1
   116c0:	0128a023          	sw	s2,0(a7)
   116c4:	f5ffe06f          	j	10622 <_vfprintf_r+0x21a>
   116c8:	4705                	li	a4,1
   116ca:	72e78c63          	beq	a5,a4,11e02 <_vfprintf_r+0x19fa>
   116ce:	4709                	li	a4,2
   116d0:	dce78863          	beq	a5,a4,10ca0 <_vfprintf_r+0x898>
   116d4:	8726                	mv	a4,s1
   116d6:	ba4ff06f          	j	10a7a <_vfprintf_r+0x672>
   116da:	57ce                	lw	a5,240(sp)
   116dc:	110c                	addi	a1,sp,160
   116de:	1908                	addi	a0,sp,176
   116e0:	d93e                	sw	a5,176(sp)
   116e2:	57de                	lw	a5,244(sp)
   116e4:	c446                	sw	a7,8(sp)
   116e6:	d102                	sw	zero,160(sp)
   116e8:	db3e                	sw	a5,180(sp)
   116ea:	57ee                	lw	a5,248(sp)
   116ec:	d302                	sw	zero,164(sp)
   116ee:	d502                	sw	zero,168(sp)
   116f0:	dd3e                	sw	a5,184(sp)
   116f2:	57fe                	lw	a5,252(sp)
   116f4:	d702                	sw	zero,172(sp)
   116f6:	df3e                	sw	a5,188(sp)
   116f8:	34d090ef          	jal	ra,1b244 <__letf2>
   116fc:	48a2                	lw	a7,8(sp)
   116fe:	5e054763          	bltz	a0,11cec <_vfprintf_r+0x18e4>
   11702:	0c714703          	lbu	a4,199(sp)
   11706:	04700793          	li	a5,71
   1170a:	2587d563          	bge	a5,s8,11954 <_vfprintf_r+0x154c>
   1170e:	67f9                	lui	a5,0x1e
   11710:	8e878d13          	addi	s10,a5,-1816 # 1d8e8 <__clzsi2+0x5a>
   11714:	d802                	sw	zero,48(sp)
   11716:	da02                	sw	zero,52(sp)
   11718:	d602                	sw	zero,44(sp)
   1171a:	f7f4f493          	andi	s1,s1,-129
   1171e:	4b8d                	li	s7,3
   11720:	4d81                	li	s11,0
   11722:	4c8d                	li	s9,3
   11724:	4301                	li	t1,0
   11726:	c319                	beqz	a4,1172c <_vfprintf_r+0x1324>
   11728:	85cff06f          	j	10784 <_vfprintf_r+0x37c>
   1172c:	e71fe06f          	j	1059c <_vfprintf_r+0x194>
   11730:	47b2                	lw	a5,12(sp)
   11732:	8d22                	mv	s10,s0
   11734:	439c                	lw	a5,0(a5)
   11736:	c63a                	sw	a4,12(sp)
   11738:	4712                	lw	a4,4(sp)
   1173a:	c398                	sw	a4,0(a5)
   1173c:	f25fe06f          	j	10660 <_vfprintf_r+0x258>
   11740:	4686                	lw	a3,64(sp)
   11742:	57f2                	lw	a5,60(sp)
   11744:	461d                	li	a2,7
   11746:	00d8a023          	sw	a3,0(a7)
   1174a:	56ae                	lw	a3,232(sp)
   1174c:	973e                	add	a4,a4,a5
   1174e:	00f8a223          	sw	a5,4(a7)
   11752:	0685                	addi	a3,a3,1
   11754:	d7ba                	sw	a4,236(sp)
   11756:	d5b6                	sw	a3,232(sp)
   11758:	08a1                	addi	a7,a7,8
   1175a:	28d64d63          	blt	a2,a3,119f4 <_vfprintf_r+0x15ec>
   1175e:	5c05cf63          	bltz	a1,11d3c <_vfprintf_r+0x1934>
   11762:	47c2                	lw	a5,16(sp)
   11764:	0685                	addi	a3,a3,1
   11766:	01a8a023          	sw	s10,0(a7)
   1176a:	973e                	add	a4,a4,a5
   1176c:	00f8a223          	sw	a5,4(a7)
   11770:	d7ba                	sw	a4,236(sp)
   11772:	d5b6                	sw	a3,232(sp)
   11774:	479d                	li	a5,7
   11776:	00d7c463          	blt	a5,a3,1177e <_vfprintf_r+0x1376>
   1177a:	eb7fe06f          	j	10630 <_vfprintf_r+0x228>
   1177e:	9f2ff06f          	j	10970 <_vfprintf_r+0x568>
   11782:	9736                	add	a4,a4,a3
   11784:	0c85                	addi	s9,s9,1
   11786:	012c2023          	sw	s2,0(s8)
   1178a:	9b8ff06f          	j	10942 <_vfprintf_r+0x53a>
   1178e:	856a                	mv	a0,s10
   11790:	c446                	sw	a7,8(sp)
   11792:	c636                	sw	a3,12(sp)
   11794:	1bd040ef          	jal	ra,16150 <strlen>
   11798:	0c714703          	lbu	a4,199(sp)
   1179c:	fff54b93          	not	s7,a0
   117a0:	41fbdb93          	srai	s7,s7,0x1f
   117a4:	d802                	sw	zero,48(sp)
   117a6:	da02                	sw	zero,52(sp)
   117a8:	d602                	sw	zero,44(sp)
   117aa:	48a2                	lw	a7,8(sp)
   117ac:	8caa                	mv	s9,a0
   117ae:	01757bb3          	and	s7,a0,s7
   117b2:	4d81                	li	s11,0
   117b4:	4301                	li	t1,0
   117b6:	c319                	beqz	a4,117bc <_vfprintf_r+0x13b4>
   117b8:	fcdfe06f          	j	10784 <_vfprintf_r+0x37c>
   117bc:	de1fe06f          	j	1059c <_vfprintf_r+0x194>
   117c0:	57fe                	lw	a5,252(sp)
   117c2:	2007c163          	bltz	a5,119c4 <_vfprintf_r+0x15bc>
   117c6:	0c714703          	lbu	a4,199(sp)
   117ca:	04700793          	li	a5,71
   117ce:	5587d463          	bge	a5,s8,11d16 <_vfprintf_r+0x190e>
   117d2:	67f9                	lui	a5,0x1e
   117d4:	8f078d13          	addi	s10,a5,-1808 # 1d8f0 <__clzsi2+0x62>
   117d8:	bf35                	j	11714 <_vfprintf_r+0x130c>
   117da:	9766                	add	a4,a4,s9
   117dc:	0685                	addi	a3,a3,1
   117de:	0128a023          	sw	s2,0(a7)
   117e2:	0198a223          	sw	s9,4(a7)
   117e6:	d7ba                	sw	a4,236(sp)
   117e8:	d5b6                	sw	a3,232(sp)
   117ea:	461d                	li	a2,7
   117ec:	08a1                	addi	a7,a7,8
   117ee:	fcd65263          	bge	a2,a3,10fb2 <_vfprintf_r+0xbaa>
   117f2:	11d0                	addi	a2,sp,228
   117f4:	85d2                	mv	a1,s4
   117f6:	8556                	mv	a0,s5
   117f8:	6d2060ef          	jal	ra,17eca <__sprint_r>
   117fc:	ea051663          	bnez	a0,10ea8 <_vfprintf_r+0xaa0>
   11800:	573e                	lw	a4,236(sp)
   11802:	88da                	mv	a7,s6
   11804:	faeff06f          	j	10fb2 <_vfprintf_r+0xbaa>
   11808:	47c2                	lw	a5,16(sp)
   1180a:	4e1d                	li	t3,7
   1180c:	4cc1                	li	s9,16
   1180e:	97ea                	add	a5,a5,s10
   11810:	ce3e                	sw	a5,28(sp)
   11812:	57d2                	lw	a5,52(sp)
   11814:	cfa5                	beqz	a5,1188c <_vfprintf_r+0x1484>
   11816:	57c2                	lw	a5,48(sp)
   11818:	efad                	bnez	a5,11892 <_vfprintf_r+0x148a>
   1181a:	57e2                	lw	a5,56(sp)
   1181c:	17fd                	addi	a5,a5,-1
   1181e:	dc3e                	sw	a5,56(sp)
   11820:	57d2                	lw	a5,52(sp)
   11822:	17fd                	addi	a5,a5,-1
   11824:	da3e                	sw	a5,52(sp)
   11826:	46b6                	lw	a3,76(sp)
   11828:	47a6                	lw	a5,72(sp)
   1182a:	08a1                	addi	a7,a7,8
   1182c:	fed8ac23          	sw	a3,-8(a7)
   11830:	56ae                	lw	a3,232(sp)
   11832:	973e                	add	a4,a4,a5
   11834:	fef8ae23          	sw	a5,-4(a7)
   11838:	0685                	addi	a3,a3,1
   1183a:	d7ba                	sw	a4,236(sp)
   1183c:	d5b6                	sw	a3,232(sp)
   1183e:	0cde4063          	blt	t3,a3,118fe <_vfprintf_r+0x14f6>
   11842:	57e2                	lw	a5,56(sp)
   11844:	0007c603          	lbu	a2,0(a5)
   11848:	47f2                	lw	a5,28(sp)
   1184a:	418786b3          	sub	a3,a5,s8
   1184e:	00d65363          	bge	a2,a3,11854 <_vfprintf_r+0x144c>
   11852:	86b2                	mv	a3,a2
   11854:	02d05163          	blez	a3,11876 <_vfprintf_r+0x146e>
   11858:	562e                	lw	a2,232(sp)
   1185a:	9736                	add	a4,a4,a3
   1185c:	0188a023          	sw	s8,0(a7)
   11860:	0605                	addi	a2,a2,1
   11862:	00d8a223          	sw	a3,4(a7)
   11866:	d7ba                	sw	a4,236(sp)
   11868:	d5b2                	sw	a2,232(sp)
   1186a:	0ace4563          	blt	t3,a2,11914 <_vfprintf_r+0x150c>
   1186e:	57e2                	lw	a5,56(sp)
   11870:	08a1                	addi	a7,a7,8
   11872:	0007c603          	lbu	a2,0(a5)
   11876:	fff6c593          	not	a1,a3
   1187a:	85fd                	srai	a1,a1,0x1f
   1187c:	8eed                	and	a3,a3,a1
   1187e:	40d606b3          	sub	a3,a2,a3
   11882:	00d04c63          	bgtz	a3,1189a <_vfprintf_r+0x1492>
   11886:	9c32                	add	s8,s8,a2
   11888:	57d2                	lw	a5,52(sp)
   1188a:	f7d1                	bnez	a5,11816 <_vfprintf_r+0x140e>
   1188c:	57c2                	lw	a5,48(sp)
   1188e:	38078e63          	beqz	a5,11c2a <_vfprintf_r+0x1822>
   11892:	57c2                	lw	a5,48(sp)
   11894:	17fd                	addi	a5,a5,-1
   11896:	d83e                	sw	a5,48(sp)
   11898:	b779                	j	11826 <_vfprintf_r+0x141e>
   1189a:	562e                	lw	a2,232(sp)
   1189c:	00dcc663          	blt	s9,a3,118a8 <_vfprintf_r+0x14a0>
   118a0:	a83d                	j	118de <_vfprintf_r+0x14d6>
   118a2:	16c1                	addi	a3,a3,-16
   118a4:	02dcdd63          	bge	s9,a3,118de <_vfprintf_r+0x14d6>
   118a8:	0741                	addi	a4,a4,16
   118aa:	0605                	addi	a2,a2,1
   118ac:	0128a023          	sw	s2,0(a7)
   118b0:	0198a223          	sw	s9,4(a7)
   118b4:	d7ba                	sw	a4,236(sp)
   118b6:	d5b2                	sw	a2,232(sp)
   118b8:	08a1                	addi	a7,a7,8
   118ba:	fece54e3          	bge	t3,a2,118a2 <_vfprintf_r+0x149a>
   118be:	11d0                	addi	a2,sp,228
   118c0:	85d2                	mv	a1,s4
   118c2:	8556                	mv	a0,s5
   118c4:	c436                	sw	a3,8(sp)
   118c6:	604060ef          	jal	ra,17eca <__sprint_r>
   118ca:	dc051f63          	bnez	a0,10ea8 <_vfprintf_r+0xaa0>
   118ce:	46a2                	lw	a3,8(sp)
   118d0:	573e                	lw	a4,236(sp)
   118d2:	562e                	lw	a2,232(sp)
   118d4:	16c1                	addi	a3,a3,-16
   118d6:	88da                	mv	a7,s6
   118d8:	4e1d                	li	t3,7
   118da:	fcdcc7e3          	blt	s9,a3,118a8 <_vfprintf_r+0x14a0>
   118de:	9736                	add	a4,a4,a3
   118e0:	0605                	addi	a2,a2,1
   118e2:	0128a023          	sw	s2,0(a7)
   118e6:	00d8a223          	sw	a3,4(a7)
   118ea:	d7ba                	sw	a4,236(sp)
   118ec:	d5b2                	sw	a2,232(sp)
   118ee:	3cce4463          	blt	t3,a2,11cb6 <_vfprintf_r+0x18ae>
   118f2:	57e2                	lw	a5,56(sp)
   118f4:	08a1                	addi	a7,a7,8
   118f6:	0007c603          	lbu	a2,0(a5)
   118fa:	9c32                	add	s8,s8,a2
   118fc:	b771                	j	11888 <_vfprintf_r+0x1480>
   118fe:	11d0                	addi	a2,sp,228
   11900:	85d2                	mv	a1,s4
   11902:	8556                	mv	a0,s5
   11904:	5c6060ef          	jal	ra,17eca <__sprint_r>
   11908:	da051063          	bnez	a0,10ea8 <_vfprintf_r+0xaa0>
   1190c:	573e                	lw	a4,236(sp)
   1190e:	88da                	mv	a7,s6
   11910:	4e1d                	li	t3,7
   11912:	bf05                	j	11842 <_vfprintf_r+0x143a>
   11914:	11d0                	addi	a2,sp,228
   11916:	85d2                	mv	a1,s4
   11918:	8556                	mv	a0,s5
   1191a:	c436                	sw	a3,8(sp)
   1191c:	5ae060ef          	jal	ra,17eca <__sprint_r>
   11920:	d8051463          	bnez	a0,10ea8 <_vfprintf_r+0xaa0>
   11924:	57e2                	lw	a5,56(sp)
   11926:	573e                	lw	a4,236(sp)
   11928:	46a2                	lw	a3,8(sp)
   1192a:	0007c603          	lbu	a2,0(a5)
   1192e:	88da                	mv	a7,s6
   11930:	4e1d                	li	t3,7
   11932:	b791                	j	11876 <_vfprintf_r+0x146e>
   11934:	47a5                	li	a5,9
   11936:	c177e6e3          	bltu	a5,s7,11542 <_vfprintf_r+0x113a>
   1193a:	b94ff06f          	j	10cce <_vfprintf_r+0x8c6>
   1193e:	11d0                	addi	a2,sp,228
   11940:	85d2                	mv	a1,s4
   11942:	8556                	mv	a0,s5
   11944:	586060ef          	jal	ra,17eca <__sprint_r>
   11948:	d6051063          	bnez	a0,10ea8 <_vfprintf_r+0xaa0>
   1194c:	45be                	lw	a1,204(sp)
   1194e:	573e                	lw	a4,236(sp)
   11950:	88da                	mv	a7,s6
   11952:	b315                	j	11676 <_vfprintf_r+0x126e>
   11954:	67f9                	lui	a5,0x1e
   11956:	8e478d13          	addi	s10,a5,-1820 # 1d8e4 <__clzsi2+0x56>
   1195a:	bb6d                	j	11714 <_vfprintf_r+0x130c>
   1195c:	11d0                	addi	a2,sp,228
   1195e:	85d2                	mv	a1,s4
   11960:	8556                	mv	a0,s5
   11962:	568060ef          	jal	ra,17eca <__sprint_r>
   11966:	d4051163          	bnez	a0,10ea8 <_vfprintf_r+0xaa0>
   1196a:	573e                	lw	a4,236(sp)
   1196c:	88da                	mv	a7,s6
   1196e:	e30ff06f          	j	10f9e <_vfprintf_r+0xb96>
   11972:	4c99                	li	s9,6
   11974:	b84d                	j	11226 <_vfprintf_r+0xe1e>
   11976:	46c2                	lw	a3,16(sp)
   11978:	00dd07b3          	add	a5,s10,a3
   1197c:	41968cb3          	sub	s9,a3,s9
   11980:	41878d33          	sub	s10,a5,s8
   11984:	e9acde63          	bge	s9,s10,11020 <_vfprintf_r+0xc18>
   11988:	8d66                	mv	s10,s9
   1198a:	e96ff06f          	j	11020 <_vfprintf_r+0xc18>
   1198e:	47b2                	lw	a5,12(sp)
   11990:	c63a                	sw	a4,12(sp)
   11992:	4712                	lw	a4,4(sp)
   11994:	439c                	lw	a5,0(a5)
   11996:	8d22                	mv	s10,s0
   11998:	00e79023          	sh	a4,0(a5)
   1199c:	cc5fe06f          	j	10660 <_vfprintf_r+0x258>
   119a0:	0ffbfb93          	zext.b	s7,s7
   119a4:	4c81                	li	s9,0
   119a6:	819ff06f          	j	111be <_vfprintf_r+0xdb6>
   119aa:	0be2                	slli	s7,s7,0x18
   119ac:	418bdb93          	srai	s7,s7,0x18
   119b0:	41fbdc93          	srai	s9,s7,0x1f
   119b4:	87e6                	mv	a5,s9
   119b6:	d91fe06f          	j	10746 <_vfprintf_r+0x33e>
   119ba:	0ffbfb93          	zext.b	s7,s7
   119be:	4c81                	li	s9,0
   119c0:	de7fe06f          	j	107a6 <_vfprintf_r+0x39e>
   119c4:	02d00793          	li	a5,45
   119c8:	0cf103a3          	sb	a5,199(sp)
   119cc:	02d00713          	li	a4,45
   119d0:	bbed                	j	117ca <_vfprintf_r+0x13c2>
   119d2:	11d0                	addi	a2,sp,228
   119d4:	85d2                	mv	a1,s4
   119d6:	8556                	mv	a0,s5
   119d8:	4f2060ef          	jal	ra,17eca <__sprint_r>
   119dc:	c95fe06f          	j	10670 <_vfprintf_r+0x268>
   119e0:	4d81                	li	s11,0
   119e2:	84ba                	mv	s1,a4
   119e4:	80000737          	lui	a4,0x80000
   119e8:	02d00793          	li	a5,45
   119ec:	01d74eb3          	xor	t4,a4,t4
   119f0:	debe                	sw	a5,124(sp)
   119f2:	b0c1                	j	112b2 <_vfprintf_r+0xeaa>
   119f4:	11d0                	addi	a2,sp,228
   119f6:	85d2                	mv	a1,s4
   119f8:	8556                	mv	a0,s5
   119fa:	4d0060ef          	jal	ra,17eca <__sprint_r>
   119fe:	ca051563          	bnez	a0,10ea8 <_vfprintf_r+0xaa0>
   11a02:	45be                	lw	a1,204(sp)
   11a04:	573e                	lw	a4,236(sp)
   11a06:	56ae                	lw	a3,232(sp)
   11a08:	88da                	mv	a7,s6
   11a0a:	bb91                	j	1175e <_vfprintf_r+0x1356>
   11a0c:	00130593          	addi	a1,t1,1
   11a10:	8556                	mv	a0,s5
   11a12:	c846                	sw	a7,16(sp)
   11a14:	c41a                	sw	t1,8(sp)
   11a16:	2b0030ef          	jal	ra,14cc6 <_malloc_r>
   11a1a:	4322                	lw	t1,8(sp)
   11a1c:	48c2                	lw	a7,16(sp)
   11a1e:	8d2a                	mv	s10,a0
   11a20:	62050b63          	beqz	a0,12056 <_vfprintf_r+0x1c4e>
   11a24:	8daa                	mv	s11,a0
   11a26:	b895                	j	1129a <_vfprintf_r+0xe92>
   11a28:	0a010c93          	addi	s9,sp,160
   11a2c:	ba01                	j	1133c <_vfprintf_r+0xf34>
   11a2e:	00130693          	addi	a3,t1,1
   11a32:	4609                	li	a2,2
   11a34:	b055                	j	112d8 <_vfprintf_r+0xed0>
   11a36:	869a                	mv	a3,t1
   11a38:	460d                	li	a2,3
   11a3a:	b879                	j	112d8 <_vfprintf_r+0xed0>
   11a3c:	0b010b93          	addi	s7,sp,176
   11a40:	855e                	mv	a0,s7
   11a42:	d646                	sw	a7,44(sp)
   11a44:	d41a                	sw	t1,40(sp)
   11a46:	d97a                	sw	t5,176(sp)
   11a48:	db7e                	sw	t6,180(sp)
   11a4a:	dd16                	sw	t0,184(sp)
   11a4c:	df76                	sw	t4,188(sp)
   11a4e:	2c50b0ef          	jal	ra,1d512 <__trunctfdf2>
   11a52:	01e8                	addi	a0,sp,204
   11a54:	476040ef          	jal	ra,15eca <frexp>
   11a58:	855e                	mv	a0,s7
   11a5a:	13f0b0ef          	jal	ra,1d398 <__extenddftf2>
   11a5e:	574a                	lw	a4,176(sp)
   11a60:	091c                	addi	a5,sp,144
   11a62:	0a010c93          	addi	s9,sp,160
   11a66:	c93a                	sw	a4,144(sp)
   11a68:	575a                	lw	a4,180(sp)
   11a6a:	0110                	addi	a2,sp,128
   11a6c:	85be                	mv	a1,a5
   11a6e:	cb3a                	sw	a4,148(sp)
   11a70:	576a                	lw	a4,184(sp)
   11a72:	8566                	mv	a0,s9
   11a74:	c43e                	sw	a5,8(sp)
   11a76:	cd3a                	sw	a4,152(sp)
   11a78:	577a                	lw	a4,188(sp)
   11a7a:	d8b2                	sw	a2,112(sp)
   11a7c:	c102                	sw	zero,128(sp)
   11a7e:	cf3a                	sw	a4,156(sp)
   11a80:	3ffc0737          	lui	a4,0x3ffc0
   11a84:	c73a                	sw	a4,140(sp)
   11a86:	c302                	sw	zero,132(sp)
   11a88:	c502                	sw	zero,136(sp)
   11a8a:	0b7090ef          	jal	ra,1b340 <__multf3>
   11a8e:	580a                	lw	a6,160(sp)
   11a90:	5e9a                	lw	t4,164(sp)
   11a92:	5f2a                	lw	t5,168(sp)
   11a94:	5fba                	lw	t6,172(sp)
   11a96:	85e6                	mv	a1,s9
   11a98:	855e                	mv	a0,s7
   11a9a:	d942                	sw	a6,176(sp)
   11a9c:	d242                	sw	a6,36(sp)
   11a9e:	db76                	sw	t4,180(sp)
   11aa0:	d076                	sw	t4,32(sp)
   11aa2:	dd7a                	sw	t5,184(sp)
   11aa4:	ce7a                	sw	t5,28(sp)
   11aa6:	df7e                	sw	t6,188(sp)
   11aa8:	c87e                	sw	t6,16(sp)
   11aaa:	d102                	sw	zero,160(sp)
   11aac:	d302                	sw	zero,164(sp)
   11aae:	d502                	sw	zero,168(sp)
   11ab0:	d702                	sw	zero,172(sp)
   11ab2:	5ac090ef          	jal	ra,1b05e <__eqtf2>
   11ab6:	4fc2                	lw	t6,16(sp)
   11ab8:	4f72                	lw	t5,28(sp)
   11aba:	5e82                	lw	t4,32(sp)
   11abc:	5812                	lw	a6,36(sp)
   11abe:	5322                	lw	t1,40(sp)
   11ac0:	58b2                	lw	a7,44(sp)
   11ac2:	e119                	bnez	a0,11ac8 <_vfprintf_r+0x16c0>
   11ac4:	4705                	li	a4,1
   11ac6:	c7ba                	sw	a4,204(sp)
   11ac8:	6779                	lui	a4,0x1e
   11aca:	90870793          	addi	a5,a4,-1784 # 1d908 <__clzsi2+0x7a>
   11ace:	d0be                	sw	a5,96(sp)
   11ad0:	fff30693          	addi	a3,t1,-1
   11ad4:	876a                	mv	a4,s10
   11ad6:	a0a1                	j	11b1e <_vfprintf_r+0x1716>
   11ad8:	85e6                	mv	a1,s9
   11ada:	855e                	mv	a0,s7
   11adc:	ccb2                	sw	a2,88(sp)
   11ade:	ca96                	sw	t0,84(sp)
   11ae0:	c89e                	sw	t2,80(sp)
   11ae2:	da3a                	sw	a4,52(sp)
   11ae4:	d846                	sw	a7,48(sp)
   11ae6:	d61a                	sw	t1,44(sp)
   11ae8:	d91e                	sw	t2,176(sp)
   11aea:	d41e                	sw	t2,40(sp)
   11aec:	db16                	sw	t0,180(sp)
   11aee:	d216                	sw	t0,36(sp)
   11af0:	dd32                	sw	a2,184(sp)
   11af2:	d032                	sw	a2,32(sp)
   11af4:	df7e                	sw	t6,188(sp)
   11af6:	ce7e                	sw	t6,28(sp)
   11af8:	d102                	sw	zero,160(sp)
   11afa:	d302                	sw	zero,164(sp)
   11afc:	d502                	sw	zero,168(sp)
   11afe:	d702                	sw	zero,172(sp)
   11b00:	55e090ef          	jal	ra,1b05e <__eqtf2>
   11b04:	46f6                	lw	a3,92(sp)
   11b06:	5f02                	lw	t5,32(sp)
   11b08:	5e92                	lw	t4,36(sp)
   11b0a:	5822                	lw	a6,40(sp)
   11b0c:	4ff2                	lw	t6,28(sp)
   11b0e:	5332                	lw	t1,44(sp)
   11b10:	58c2                	lw	a7,48(sp)
   11b12:	5752                	lw	a4,52(sp)
   11b14:	16fd                	addi	a3,a3,-1
   11b16:	83c2                	mv	t2,a6
   11b18:	82f6                	mv	t0,t4
   11b1a:	867a                	mv	a2,t5
   11b1c:	c14d                	beqz	a0,11bbe <_vfprintf_r+0x17b6>
   11b1e:	4622                	lw	a2,8(sp)
   11b20:	400307b7          	lui	a5,0x40030
   11b24:	85e6                	mv	a1,s9
   11b26:	855e                	mv	a0,s7
   11b28:	c8ba                	sw	a4,80(sp)
   11b2a:	da46                	sw	a7,52(sp)
   11b2c:	d81a                	sw	t1,48(sp)
   11b2e:	d636                	sw	a3,44(sp)
   11b30:	d77e                	sw	t6,172(sp)
   11b32:	cf3e                	sw	a5,156(sp)
   11b34:	d142                	sw	a6,160(sp)
   11b36:	d376                	sw	t4,164(sp)
   11b38:	d57a                	sw	t5,168(sp)
   11b3a:	c902                	sw	zero,144(sp)
   11b3c:	cb02                	sw	zero,148(sp)
   11b3e:	cd02                	sw	zero,152(sp)
   11b40:	001090ef          	jal	ra,1b340 <__multf3>
   11b44:	5f4a                	lw	t5,176(sp)
   11b46:	5eda                	lw	t4,180(sp)
   11b48:	586a                	lw	a6,184(sp)
   11b4a:	567a                	lw	a2,188(sp)
   11b4c:	855e                	mv	a0,s7
   11b4e:	d47a                	sw	t5,40(sp)
   11b50:	d276                	sw	t4,36(sp)
   11b52:	d042                	sw	a6,32(sp)
   11b54:	ce32                	sw	a2,28(sp)
   11b56:	6400b0ef          	jal	ra,1d196 <__fixtfsi>
   11b5a:	85aa                	mv	a1,a0
   11b5c:	c82a                	sw	a0,16(sp)
   11b5e:	855e                	mv	a0,s7
   11b60:	7640b0ef          	jal	ra,1d2c4 <__floatsitf>
   11b64:	4672                	lw	a2,28(sp)
   11b66:	5f22                	lw	t5,40(sp)
   11b68:	5e92                	lw	t4,36(sp)
   11b6a:	cf32                	sw	a2,156(sp)
   11b6c:	564a                	lw	a2,176(sp)
   11b6e:	5802                	lw	a6,32(sp)
   11b70:	45a2                	lw	a1,8(sp)
   11b72:	c132                	sw	a2,128(sp)
   11b74:	565a                	lw	a2,180(sp)
   11b76:	8566                	mv	a0,s9
   11b78:	c97a                	sw	t5,144(sp)
   11b7a:	c332                	sw	a2,132(sp)
   11b7c:	566a                	lw	a2,184(sp)
   11b7e:	cb76                	sw	t4,148(sp)
   11b80:	cd42                	sw	a6,152(sp)
   11b82:	c532                	sw	a2,136(sp)
   11b84:	567a                	lw	a2,188(sp)
   11b86:	c732                	sw	a2,140(sp)
   11b88:	5646                	lw	a2,112(sp)
   11b8a:	49e0a0ef          	jal	ra,1c028 <__subtf3>
   11b8e:	5706                	lw	a4,96(sp)
   11b90:	47c2                	lw	a5,16(sp)
   11b92:	5fba                	lw	t6,172(sp)
   11b94:	56b2                	lw	a3,44(sp)
   11b96:	00f70633          	add	a2,a4,a5
   11b9a:	00064583          	lbu	a1,0(a2)
   11b9e:	4746                	lw	a4,80(sp)
   11ba0:	538a                	lw	t2,160(sp)
   11ba2:	529a                	lw	t0,164(sp)
   11ba4:	562a                	lw	a2,168(sp)
   11ba6:	dcba                	sw	a4,120(sp)
   11ba8:	00b70023          	sb	a1,0(a4)
   11bac:	d6fe                	sw	t6,108(sp)
   11bae:	dab6                	sw	a3,116(sp)
   11bb0:	57fd                	li	a5,-1
   11bb2:	ceb6                	sw	a3,92(sp)
   11bb4:	5342                	lw	t1,48(sp)
   11bb6:	58d2                	lw	a7,52(sp)
   11bb8:	0705                	addi	a4,a4,1
   11bba:	f0f69fe3          	bne	a3,a5,11ad8 <_vfprintf_r+0x16d0>
   11bbe:	57b6                	lw	a5,108(sp)
   11bc0:	3ffe06b7          	lui	a3,0x3ffe0
   11bc4:	85e6                	mv	a1,s9
   11bc6:	855e                	mv	a0,s7
   11bc8:	d03a                	sw	a4,32(sp)
   11bca:	ce46                	sw	a7,28(sp)
   11bcc:	c41a                	sw	t1,8(sp)
   11bce:	d91e                	sw	t2,176(sp)
   11bd0:	d61e                	sw	t2,44(sp)
   11bd2:	db16                	sw	t0,180(sp)
   11bd4:	d416                	sw	t0,40(sp)
   11bd6:	dd32                	sw	a2,184(sp)
   11bd8:	d232                	sw	a2,36(sp)
   11bda:	df3e                	sw	a5,188(sp)
   11bdc:	d102                	sw	zero,160(sp)
   11bde:	d302                	sw	zero,164(sp)
   11be0:	d502                	sw	zero,168(sp)
   11be2:	d736                	sw	a3,172(sp)
   11be4:	564090ef          	jal	ra,1b148 <__getf2>
   11be8:	4322                	lw	t1,8(sp)
   11bea:	48f2                	lw	a7,28(sp)
   11bec:	5702                	lw	a4,32(sp)
   11bee:	20a04d63          	bgtz	a0,11e08 <_vfprintf_r+0x1a00>
   11bf2:	85e6                	mv	a1,s9
   11bf4:	855e                	mv	a0,s7
   11bf6:	468090ef          	jal	ra,1b05e <__eqtf2>
   11bfa:	4322                	lw	t1,8(sp)
   11bfc:	48f2                	lw	a7,28(sp)
   11bfe:	5702                	lw	a4,32(sp)
   11c00:	e511                	bnez	a0,11c0c <_vfprintf_r+0x1804>
   11c02:	47c2                	lw	a5,16(sp)
   11c04:	0017f693          	andi	a3,a5,1
   11c08:	20069063          	bnez	a3,11e08 <_vfprintf_r+0x1a00>
   11c0c:	57d6                	lw	a5,116(sp)
   11c0e:	03000613          	li	a2,48
   11c12:	00178693          	addi	a3,a5,1 # 40030001 <__BSS_END__+0x400105c9>
   11c16:	96ba                	add	a3,a3,a4
   11c18:	f607c363          	bltz	a5,1137e <_vfprintf_r+0xf76>
   11c1c:	0705                	addi	a4,a4,1
   11c1e:	fec70fa3          	sb	a2,-1(a4)
   11c22:	fee69de3          	bne	a3,a4,11c1c <_vfprintf_r+0x1814>
   11c26:	f58ff06f          	j	1137e <_vfprintf_r+0xf76>
   11c2a:	47c2                	lw	a5,16(sp)
   11c2c:	00fd06b3          	add	a3,s10,a5
   11c30:	b986f863          	bgeu	a3,s8,10fc0 <_vfprintf_r+0xbb8>
   11c34:	8c36                	mv	s8,a3
   11c36:	b8aff06f          	j	10fc0 <_vfprintf_r+0xbb8>
   11c3a:	57b2                	lw	a5,44(sp)
   11c3c:	5775                	li	a4,-3
   11c3e:	00e7c463          	blt	a5,a4,11c46 <_vfprintf_r+0x183e>
   11c42:	02f35063          	bge	t1,a5,11c62 <_vfprintf_r+0x185a>
   11c46:	1c79                	addi	s8,s8,-2
   11c48:	fdfc7793          	andi	a5,s8,-33
   11c4c:	d2be                	sw	a5,100(sp)
   11c4e:	f4eff06f          	j	1139c <_vfprintf_r+0xf94>
   11c52:	0c714703          	lbu	a4,199(sp)
   11c56:	4301                	li	t1,0
   11c58:	c319                	beqz	a4,11c5e <_vfprintf_r+0x1856>
   11c5a:	b2bfe06f          	j	10784 <_vfprintf_r+0x37c>
   11c5e:	93ffe06f          	j	1059c <_vfprintf_r+0x194>
   11c62:	47c2                	lw	a5,16(sp)
   11c64:	5732                	lw	a4,44(sp)
   11c66:	10f74d63          	blt	a4,a5,11d80 <_vfprintf_r+0x1978>
   11c6a:	57a6                	lw	a5,104(sp)
   11c6c:	0017f713          	andi	a4,a5,1
   11c70:	57b2                	lw	a5,44(sp)
   11c72:	8cbe                	mv	s9,a5
   11c74:	c701                	beqz	a4,11c7c <_vfprintf_r+0x1874>
   11c76:	5772                	lw	a4,60(sp)
   11c78:	00e78cb3          	add	s9,a5,a4
   11c7c:	57a6                	lw	a5,104(sp)
   11c7e:	4007f713          	andi	a4,a5,1024
   11c82:	c701                	beqz	a4,11c8a <_vfprintf_r+0x1882>
   11c84:	57b2                	lw	a5,44(sp)
   11c86:	2af04d63          	bgtz	a5,11f40 <_vfprintf_r+0x1b38>
   11c8a:	fffccb93          	not	s7,s9
   11c8e:	41fbdb93          	srai	s7,s7,0x1f
   11c92:	017cfbb3          	and	s7,s9,s7
   11c96:	06700c13          	li	s8,103
   11c9a:	d802                	sw	zero,48(sp)
   11c9c:	da02                	sw	zero,52(sp)
   11c9e:	fd0ff06f          	j	1146e <_vfprintf_r+0x1066>
   11ca2:	57a6                	lw	a5,104(sp)
   11ca4:	00d50833          	add	a6,a0,a3
   11ca8:	0017f713          	andi	a4,a5,1
   11cac:	d6071ee3          	bnez	a4,11a28 <_vfprintf_r+0x1620>
   11cb0:	477e                	lw	a4,220(sp)
   11cb2:	eccff06f          	j	1137e <_vfprintf_r+0xf76>
   11cb6:	11d0                	addi	a2,sp,228
   11cb8:	85d2                	mv	a1,s4
   11cba:	8556                	mv	a0,s5
   11cbc:	20e060ef          	jal	ra,17eca <__sprint_r>
   11cc0:	9e051463          	bnez	a0,10ea8 <_vfprintf_r+0xaa0>
   11cc4:	57e2                	lw	a5,56(sp)
   11cc6:	573e                	lw	a4,236(sp)
   11cc8:	88da                	mv	a7,s6
   11cca:	0007c603          	lbu	a2,0(a5)
   11cce:	4e1d                	li	t3,7
   11cd0:	9c32                	add	s8,s8,a2
   11cd2:	be5d                	j	11888 <_vfprintf_r+0x1480>
   11cd4:	11d0                	addi	a2,sp,228
   11cd6:	85d2                	mv	a1,s4
   11cd8:	8556                	mv	a0,s5
   11cda:	1f0060ef          	jal	ra,17eca <__sprint_r>
   11cde:	9c051563          	bnez	a0,10ea8 <_vfprintf_r+0xaa0>
   11ce2:	4cbe                	lw	s9,204(sp)
   11ce4:	573e                	lw	a4,236(sp)
   11ce6:	88da                	mv	a7,s6
   11ce8:	b06ff06f          	j	10fee <_vfprintf_r+0xbe6>
   11cec:	02d00793          	li	a5,45
   11cf0:	0cf103a3          	sb	a5,199(sp)
   11cf4:	02d00713          	li	a4,45
   11cf8:	b439                	j	11706 <_vfprintf_r+0x12fe>
   11cfa:	0c714703          	lbu	a4,199(sp)
   11cfe:	c636                	sw	a3,12(sp)
   11d00:	d802                	sw	zero,48(sp)
   11d02:	da02                	sw	zero,52(sp)
   11d04:	d602                	sw	zero,44(sp)
   11d06:	8b9a                	mv	s7,t1
   11d08:	8c9a                	mv	s9,t1
   11d0a:	4301                	li	t1,0
   11d0c:	c319                	beqz	a4,11d12 <_vfprintf_r+0x190a>
   11d0e:	a77fe06f          	j	10784 <_vfprintf_r+0x37c>
   11d12:	88bfe06f          	j	1059c <_vfprintf_r+0x194>
   11d16:	67f9                	lui	a5,0x1e
   11d18:	8ec78d13          	addi	s10,a5,-1812 # 1d8ec <__clzsi2+0x5e>
   11d1c:	bae5                	j	11714 <_vfprintf_r+0x130c>
   11d1e:	11d0                	addi	a2,sp,228
   11d20:	85d2                	mv	a1,s4
   11d22:	8556                	mv	a0,s5
   11d24:	1a6060ef          	jal	ra,17eca <__sprint_r>
   11d28:	98051063          	bnez	a0,10ea8 <_vfprintf_r+0xaa0>
   11d2c:	4cbe                	lw	s9,204(sp)
   11d2e:	47c2                	lw	a5,16(sp)
   11d30:	573e                	lw	a4,236(sp)
   11d32:	88da                	mv	a7,s6
   11d34:	41978cb3          	sub	s9,a5,s9
   11d38:	ae8ff06f          	j	11020 <_vfprintf_r+0xc18>
   11d3c:	5641                	li	a2,-16
   11d3e:	40b00cb3          	neg	s9,a1
   11d42:	10c5dc63          	bge	a1,a2,11e5a <_vfprintf_r+0x1a52>
   11d46:	4841                	li	a6,16
   11d48:	4c1d                	li	s8,7
   11d4a:	a021                	j	11d52 <_vfprintf_r+0x194a>
   11d4c:	1cc1                	addi	s9,s9,-16
   11d4e:	11985663          	bge	a6,s9,11e5a <_vfprintf_r+0x1a52>
   11d52:	0741                	addi	a4,a4,16
   11d54:	0685                	addi	a3,a3,1
   11d56:	0128a023          	sw	s2,0(a7)
   11d5a:	0108a223          	sw	a6,4(a7)
   11d5e:	d7ba                	sw	a4,236(sp)
   11d60:	d5b6                	sw	a3,232(sp)
   11d62:	08a1                	addi	a7,a7,8
   11d64:	fedc54e3          	bge	s8,a3,11d4c <_vfprintf_r+0x1944>
   11d68:	11d0                	addi	a2,sp,228
   11d6a:	85d2                	mv	a1,s4
   11d6c:	8556                	mv	a0,s5
   11d6e:	15c060ef          	jal	ra,17eca <__sprint_r>
   11d72:	92051b63          	bnez	a0,10ea8 <_vfprintf_r+0xaa0>
   11d76:	573e                	lw	a4,236(sp)
   11d78:	56ae                	lw	a3,232(sp)
   11d7a:	88da                	mv	a7,s6
   11d7c:	4841                	li	a6,16
   11d7e:	b7f9                	j	11d4c <_vfprintf_r+0x1944>
   11d80:	47c2                	lw	a5,16(sp)
   11d82:	5772                	lw	a4,60(sp)
   11d84:	06700c13          	li	s8,103
   11d88:	00e78cb3          	add	s9,a5,a4
   11d8c:	57b2                	lw	a5,44(sp)
   11d8e:	24f05e63          	blez	a5,11fea <_vfprintf_r+0x1be2>
   11d92:	57a6                	lw	a5,104(sp)
   11d94:	4007f713          	andi	a4,a5,1024
   11d98:	1a071663          	bnez	a4,11f44 <_vfprintf_r+0x1b3c>
   11d9c:	fffccb93          	not	s7,s9
   11da0:	41fbdb93          	srai	s7,s7,0x1f
   11da4:	017cfbb3          	and	s7,s9,s7
   11da8:	bdcd                	j	11c9a <_vfprintf_r+0x1892>
   11daa:	57a6                	lw	a5,104(sp)
   11dac:	0017f713          	andi	a4,a5,1
   11db0:	57b2                	lw	a5,44(sp)
   11db2:	00676733          	or	a4,a4,t1
   11db6:	24f05b63          	blez	a5,1200c <_vfprintf_r+0x1c04>
   11dba:	24071263          	bnez	a4,11ffe <_vfprintf_r+0x1bf6>
   11dbe:	5cb2                	lw	s9,44(sp)
   11dc0:	06600c13          	li	s8,102
   11dc4:	b7f9                	j	11d92 <_vfprintf_r+0x198a>
   11dc6:	66f9                	lui	a3,0x1e
   11dc8:	b2c68e93          	addi	t4,a3,-1236 # 1db2c <blanks.1>
   11dcc:	c0bfe06f          	j	109d6 <_vfprintf_r+0x5ce>
   11dd0:	57fd                	li	a5,-1
   11dd2:	c23e                	sw	a5,4(sp)
   11dd4:	8abfe06f          	j	1067e <_vfprintf_r+0x276>
   11dd8:	0d610693          	addi	a3,sp,214
   11ddc:	e619                	bnez	a2,11dea <_vfprintf_r+0x19e2>
   11dde:	03000693          	li	a3,48
   11de2:	0cd10b23          	sb	a3,214(sp)
   11de6:	0d710693          	addi	a3,sp,215
   11dea:	1b1c                	addi	a5,sp,432
   11dec:	40f68633          	sub	a2,a3,a5
   11df0:	03070713          	addi	a4,a4,48
   11df4:	0dd60793          	addi	a5,a2,221
   11df8:	00e68023          	sb	a4,0(a3)
   11dfc:	c2be                	sw	a5,68(sp)
   11dfe:	e42ff06f          	j	11440 <_vfprintf_r+0x1038>
   11e02:	8726                	mv	a4,s1
   11e04:	d4bfe06f          	j	10b4e <_vfprintf_r+0x746>
   11e08:	57e6                	lw	a5,120(sp)
   11e0a:	86ba                	mv	a3,a4
   11e0c:	cfbe                	sw	a5,220(sp)
   11e0e:	5786                	lw	a5,96(sp)
   11e10:	fff74603          	lbu	a2,-1(a4)
   11e14:	00f7c583          	lbu	a1,15(a5)
   11e18:	00c59e63          	bne	a1,a2,11e34 <_vfprintf_r+0x1a2c>
   11e1c:	03000513          	li	a0,48
   11e20:	fea68fa3          	sb	a0,-1(a3)
   11e24:	46fe                	lw	a3,220(sp)
   11e26:	fff68613          	addi	a2,a3,-1
   11e2a:	cfb2                	sw	a2,220(sp)
   11e2c:	fff6c603          	lbu	a2,-1(a3)
   11e30:	fec588e3          	beq	a1,a2,11e20 <_vfprintf_r+0x1a18>
   11e34:	00160593          	addi	a1,a2,1
   11e38:	03900513          	li	a0,57
   11e3c:	0ff5f593          	zext.b	a1,a1
   11e40:	00a60663          	beq	a2,a0,11e4c <_vfprintf_r+0x1a44>
   11e44:	feb68fa3          	sb	a1,-1(a3)
   11e48:	d36ff06f          	j	1137e <_vfprintf_r+0xf76>
   11e4c:	5786                	lw	a5,96(sp)
   11e4e:	00a7c583          	lbu	a1,10(a5)
   11e52:	feb68fa3          	sb	a1,-1(a3)
   11e56:	d28ff06f          	j	1137e <_vfprintf_r+0xf76>
   11e5a:	9766                	add	a4,a4,s9
   11e5c:	0685                	addi	a3,a3,1
   11e5e:	0128a023          	sw	s2,0(a7)
   11e62:	0198a223          	sw	s9,4(a7)
   11e66:	d7ba                	sw	a4,236(sp)
   11e68:	d5b6                	sw	a3,232(sp)
   11e6a:	461d                	li	a2,7
   11e6c:	82d65be3          	bge	a2,a3,116a2 <_vfprintf_r+0x129a>
   11e70:	11d0                	addi	a2,sp,228
   11e72:	85d2                	mv	a1,s4
   11e74:	8556                	mv	a0,s5
   11e76:	054060ef          	jal	ra,17eca <__sprint_r>
   11e7a:	c119                	beqz	a0,11e80 <_vfprintf_r+0x1a78>
   11e7c:	82cff06f          	j	10ea8 <_vfprintf_r+0xaa0>
   11e80:	573e                	lw	a4,236(sp)
   11e82:	56ae                	lw	a3,232(sp)
   11e84:	88da                	mv	a7,s6
   11e86:	b8f1                	j	11762 <_vfprintf_r+0x135a>
   11e88:	57a6                	lw	a5,104(sp)
   11e8a:	0017f713          	andi	a4,a5,1
   11e8e:	dc070263          	beqz	a4,11452 <_vfprintf_r+0x104a>
   11e92:	dbcff06f          	j	1144e <_vfprintf_r+0x1046>
   11e96:	00030463          	beqz	t1,11e9e <_vfprintf_r+0x1a96>
   11e9a:	9edfe06f          	j	10886 <_vfprintf_r+0x47e>
   11e9e:	4305                	li	t1,1
   11ea0:	9e7fe06f          	j	10886 <_vfprintf_r+0x47e>
   11ea4:	4319                	li	t1,6
   11ea6:	9e1fe06f          	j	10886 <_vfprintf_r+0x47e>
   11eaa:	0b010b93          	addi	s7,sp,176
   11eae:	855e                	mv	a0,s7
   11eb0:	d646                	sw	a7,44(sp)
   11eb2:	d41a                	sw	t1,40(sp)
   11eb4:	d97a                	sw	t5,176(sp)
   11eb6:	db7e                	sw	t6,180(sp)
   11eb8:	dd16                	sw	t0,184(sp)
   11eba:	df76                	sw	t4,188(sp)
   11ebc:	6560b0ef          	jal	ra,1d512 <__trunctfdf2>
   11ec0:	01e8                	addi	a0,sp,204
   11ec2:	008040ef          	jal	ra,15eca <frexp>
   11ec6:	855e                	mv	a0,s7
   11ec8:	4d00b0ef          	jal	ra,1d398 <__extenddftf2>
   11ecc:	574a                	lw	a4,176(sp)
   11ece:	091c                	addi	a5,sp,144
   11ed0:	0a010c93          	addi	s9,sp,160
   11ed4:	c93a                	sw	a4,144(sp)
   11ed6:	575a                	lw	a4,180(sp)
   11ed8:	0110                	addi	a2,sp,128
   11eda:	85be                	mv	a1,a5
   11edc:	cb3a                	sw	a4,148(sp)
   11ede:	576a                	lw	a4,184(sp)
   11ee0:	8566                	mv	a0,s9
   11ee2:	c43e                	sw	a5,8(sp)
   11ee4:	cd3a                	sw	a4,152(sp)
   11ee6:	577a                	lw	a4,188(sp)
   11ee8:	d8b2                	sw	a2,112(sp)
   11eea:	c102                	sw	zero,128(sp)
   11eec:	cf3a                	sw	a4,156(sp)
   11eee:	3ffc0737          	lui	a4,0x3ffc0
   11ef2:	c73a                	sw	a4,140(sp)
   11ef4:	c302                	sw	zero,132(sp)
   11ef6:	c502                	sw	zero,136(sp)
   11ef8:	448090ef          	jal	ra,1b340 <__multf3>
   11efc:	580a                	lw	a6,160(sp)
   11efe:	5e9a                	lw	t4,164(sp)
   11f00:	5f2a                	lw	t5,168(sp)
   11f02:	5fba                	lw	t6,172(sp)
   11f04:	85e6                	mv	a1,s9
   11f06:	855e                	mv	a0,s7
   11f08:	d942                	sw	a6,176(sp)
   11f0a:	d242                	sw	a6,36(sp)
   11f0c:	db76                	sw	t4,180(sp)
   11f0e:	d076                	sw	t4,32(sp)
   11f10:	dd7a                	sw	t5,184(sp)
   11f12:	ce7a                	sw	t5,28(sp)
   11f14:	df7e                	sw	t6,188(sp)
   11f16:	c87e                	sw	t6,16(sp)
   11f18:	d102                	sw	zero,160(sp)
   11f1a:	d302                	sw	zero,164(sp)
   11f1c:	d502                	sw	zero,168(sp)
   11f1e:	d702                	sw	zero,172(sp)
   11f20:	13e090ef          	jal	ra,1b05e <__eqtf2>
   11f24:	4fc2                	lw	t6,16(sp)
   11f26:	4f72                	lw	t5,28(sp)
   11f28:	5e82                	lw	t4,32(sp)
   11f2a:	5812                	lw	a6,36(sp)
   11f2c:	5322                	lw	t1,40(sp)
   11f2e:	58b2                	lw	a7,44(sp)
   11f30:	e119                	bnez	a0,11f36 <_vfprintf_r+0x1b2e>
   11f32:	4705                	li	a4,1
   11f34:	c7ba                	sw	a4,204(sp)
   11f36:	6779                	lui	a4,0x1e
   11f38:	8f470793          	addi	a5,a4,-1804 # 1d8f4 <__clzsi2+0x66>
   11f3c:	d0be                	sw	a5,96(sp)
   11f3e:	be49                	j	11ad0 <_vfprintf_r+0x16c8>
   11f40:	06700c13          	li	s8,103
   11f44:	57e2                	lw	a5,56(sp)
   11f46:	0ff00693          	li	a3,255
   11f4a:	d802                	sw	zero,48(sp)
   11f4c:	0007c703          	lbu	a4,0(a5)
   11f50:	da02                	sw	zero,52(sp)
   11f52:	02d70863          	beq	a4,a3,11f82 <_vfprintf_r+0x1b7a>
   11f56:	57b2                	lw	a5,44(sp)
   11f58:	02f75563          	bge	a4,a5,11f82 <_vfprintf_r+0x1b7a>
   11f5c:	8f99                	sub	a5,a5,a4
   11f5e:	d63e                	sw	a5,44(sp)
   11f60:	57e2                	lw	a5,56(sp)
   11f62:	0017c703          	lbu	a4,1(a5)
   11f66:	c719                	beqz	a4,11f74 <_vfprintf_r+0x1b6c>
   11f68:	5652                	lw	a2,52(sp)
   11f6a:	0785                	addi	a5,a5,1
   11f6c:	dc3e                	sw	a5,56(sp)
   11f6e:	0605                	addi	a2,a2,1
   11f70:	da32                	sw	a2,52(sp)
   11f72:	b7c5                	j	11f52 <_vfprintf_r+0x1b4a>
   11f74:	57e2                	lw	a5,56(sp)
   11f76:	0007c703          	lbu	a4,0(a5)
   11f7a:	57c2                	lw	a5,48(sp)
   11f7c:	0785                	addi	a5,a5,1
   11f7e:	d83e                	sw	a5,48(sp)
   11f80:	bfc9                	j	11f52 <_vfprintf_r+0x1b4a>
   11f82:	57c2                	lw	a5,48(sp)
   11f84:	5752                	lw	a4,52(sp)
   11f86:	973e                	add	a4,a4,a5
   11f88:	47a6                	lw	a5,72(sp)
   11f8a:	02f70733          	mul	a4,a4,a5
   11f8e:	9cba                	add	s9,s9,a4
   11f90:	fffccb93          	not	s7,s9
   11f94:	41fbdb93          	srai	s7,s7,0x1f
   11f98:	017cfbb3          	and	s7,s9,s7
   11f9c:	cd2ff06f          	j	1146e <_vfprintf_r+0x1066>
   11fa0:	0a010c93          	addi	s9,sp,160
   11fa4:	85e6                	mv	a1,s9
   11fa6:	855e                	mv	a0,s7
   11fa8:	d842                	sw	a6,48(sp)
   11faa:	d446                	sw	a7,40(sp)
   11fac:	d21a                	sw	t1,36(sp)
   11fae:	d97a                	sw	t5,176(sp)
   11fb0:	d07a                	sw	t5,32(sp)
   11fb2:	db7e                	sw	t6,180(sp)
   11fb4:	ce7e                	sw	t6,28(sp)
   11fb6:	dd16                	sw	t0,184(sp)
   11fb8:	c816                	sw	t0,16(sp)
   11fba:	df76                	sw	t4,188(sp)
   11fbc:	c476                	sw	t4,8(sp)
   11fbe:	d636                	sw	a3,44(sp)
   11fc0:	d102                	sw	zero,160(sp)
   11fc2:	d302                	sw	zero,164(sp)
   11fc4:	d502                	sw	zero,168(sp)
   11fc6:	d702                	sw	zero,172(sp)
   11fc8:	096090ef          	jal	ra,1b05e <__eqtf2>
   11fcc:	4ea2                	lw	t4,8(sp)
   11fce:	42c2                	lw	t0,16(sp)
   11fd0:	4ff2                	lw	t6,28(sp)
   11fd2:	5f02                	lw	t5,32(sp)
   11fd4:	5312                	lw	t1,36(sp)
   11fd6:	58a2                	lw	a7,40(sp)
   11fd8:	5842                	lw	a6,48(sp)
   11fda:	b4050f63          	beqz	a0,11338 <_vfprintf_r+0xf30>
   11fde:	56b2                	lw	a3,44(sp)
   11fe0:	4705                	li	a4,1
   11fe2:	8f15                	sub	a4,a4,a3
   11fe4:	c7ba                	sw	a4,204(sp)
   11fe6:	b54ff06f          	j	1133a <_vfprintf_r+0xf32>
   11fea:	40fc8cb3          	sub	s9,s9,a5
   11fee:	0c85                	addi	s9,s9,1
   11ff0:	fffccb93          	not	s7,s9
   11ff4:	41fbdb93          	srai	s7,s7,0x1f
   11ff8:	017cfbb3          	and	s7,s9,s7
   11ffc:	b979                	j	11c9a <_vfprintf_r+0x1892>
   11ffe:	5772                	lw	a4,60(sp)
   12000:	06600c13          	li	s8,102
   12004:	00e78cb3          	add	s9,a5,a4
   12008:	9c9a                	add	s9,s9,t1
   1200a:	b361                	j	11d92 <_vfprintf_r+0x198a>
   1200c:	e711                	bnez	a4,12018 <_vfprintf_r+0x1c10>
   1200e:	4b85                	li	s7,1
   12010:	06600c13          	li	s8,102
   12014:	4c85                	li	s9,1
   12016:	b151                	j	11c9a <_vfprintf_r+0x1892>
   12018:	57f2                	lw	a5,60(sp)
   1201a:	06600c13          	li	s8,102
   1201e:	00178c93          	addi	s9,a5,1
   12022:	9c9a                	add	s9,s9,t1
   12024:	fffccb93          	not	s7,s9
   12028:	41fbdb93          	srai	s7,s7,0x1f
   1202c:	017cfbb3          	and	s7,s9,s7
   12030:	b1ad                	j	11c9a <_vfprintf_r+0x1892>
   12032:	4789                	li	a5,2
   12034:	c2be                	sw	a5,68(sp)
   12036:	c0aff06f          	j	11440 <_vfprintf_r+0x1038>
   1203a:	47b2                	lw	a5,12(sp)
   1203c:	0007a303          	lw	t1,0(a5)
   12040:	00478c13          	addi	s8,a5,4
   12044:	00035363          	bgez	t1,1204a <_vfprintf_r+0x1c42>
   12048:	537d                	li	t1,-1
   1204a:	00144e03          	lbu	t3,1(s0)
   1204e:	c662                	sw	s8,12(sp)
   12050:	8436                	mv	s0,a3
   12052:	ceefe06f          	j	10540 <_vfprintf_r+0x138>
   12056:	00ca5783          	lhu	a5,12(s4)
   1205a:	0407e793          	ori	a5,a5,64
   1205e:	00fa1623          	sh	a5,12(s4)
   12062:	e0efe06f          	j	10670 <_vfprintf_r+0x268>

00012066 <vfprintf>:
   12066:	87aa                	mv	a5,a0
   12068:	1c01a503          	lw	a0,448(gp) # 1f9d0 <_impure_ptr>
   1206c:	86b2                	mv	a3,a2
   1206e:	862e                	mv	a2,a1
   12070:	85be                	mv	a1,a5
   12072:	b96fe06f          	j	10408 <_vfprintf_r>

00012076 <__sbprintf>:
   12076:	00c5d783          	lhu	a5,12(a1)
   1207a:	0645ae03          	lw	t3,100(a1)
   1207e:	00e5d303          	lhu	t1,14(a1)
   12082:	01c5a883          	lw	a7,28(a1)
   12086:	0245a803          	lw	a6,36(a1)
   1208a:	b8010113          	addi	sp,sp,-1152
   1208e:	9bf5                	andi	a5,a5,-3
   12090:	40000713          	li	a4,1024
   12094:	46812c23          	sw	s0,1144(sp)
   12098:	00f11a23          	sh	a5,20(sp)
   1209c:	842e                	mv	s0,a1
   1209e:	189c                	addi	a5,sp,112
   120a0:	002c                	addi	a1,sp,8
   120a2:	46912a23          	sw	s1,1140(sp)
   120a6:	47212823          	sw	s2,1136(sp)
   120aa:	46112e23          	sw	ra,1148(sp)
   120ae:	892a                	mv	s2,a0
   120b0:	d6f2                	sw	t3,108(sp)
   120b2:	00611b23          	sh	t1,22(sp)
   120b6:	d246                	sw	a7,36(sp)
   120b8:	d642                	sw	a6,44(sp)
   120ba:	c43e                	sw	a5,8(sp)
   120bc:	cc3e                	sw	a5,24(sp)
   120be:	c83a                	sw	a4,16(sp)
   120c0:	ce3a                	sw	a4,28(sp)
   120c2:	d002                	sw	zero,32(sp)
   120c4:	b44fe0ef          	jal	ra,10408 <_vfprintf_r>
   120c8:	84aa                	mv	s1,a0
   120ca:	02055963          	bgez	a0,120fc <__sbprintf+0x86>
   120ce:	01415783          	lhu	a5,20(sp)
   120d2:	0407f793          	andi	a5,a5,64
   120d6:	c799                	beqz	a5,120e4 <__sbprintf+0x6e>
   120d8:	00c45783          	lhu	a5,12(s0)
   120dc:	0407e793          	ori	a5,a5,64
   120e0:	00f41623          	sh	a5,12(s0)
   120e4:	47c12083          	lw	ra,1148(sp)
   120e8:	47812403          	lw	s0,1144(sp)
   120ec:	47012903          	lw	s2,1136(sp)
   120f0:	8526                	mv	a0,s1
   120f2:	47412483          	lw	s1,1140(sp)
   120f6:	48010113          	addi	sp,sp,1152
   120fa:	8082                	ret
   120fc:	002c                	addi	a1,sp,8
   120fe:	854a                	mv	a0,s2
   12100:	2ea9                	jal	1245a <_fflush_r>
   12102:	d571                	beqz	a0,120ce <__sbprintf+0x58>
   12104:	54fd                	li	s1,-1
   12106:	b7e1                	j	120ce <__sbprintf+0x58>

00012108 <__swsetup_r>:
   12108:	1c01a783          	lw	a5,448(gp) # 1f9d0 <_impure_ptr>
   1210c:	1141                	addi	sp,sp,-16
   1210e:	c422                	sw	s0,8(sp)
   12110:	c226                	sw	s1,4(sp)
   12112:	c606                	sw	ra,12(sp)
   12114:	84aa                	mv	s1,a0
   12116:	842e                	mv	s0,a1
   12118:	c399                	beqz	a5,1211e <__swsetup_r+0x16>
   1211a:	5f98                	lw	a4,56(a5)
   1211c:	cf21                	beqz	a4,12174 <__swsetup_r+0x6c>
   1211e:	00c41703          	lh	a4,12(s0)
   12122:	01071793          	slli	a5,a4,0x10
   12126:	00877693          	andi	a3,a4,8
   1212a:	83c1                	srli	a5,a5,0x10
   1212c:	ceb1                	beqz	a3,12188 <__swsetup_r+0x80>
   1212e:	4814                	lw	a3,16(s0)
   12130:	cab5                	beqz	a3,121a4 <__swsetup_r+0x9c>
   12132:	0017f613          	andi	a2,a5,1
   12136:	ce11                	beqz	a2,12152 <__swsetup_r+0x4a>
   12138:	4850                	lw	a2,20(s0)
   1213a:	00042423          	sw	zero,8(s0)
   1213e:	4501                	li	a0,0
   12140:	40c00633          	neg	a2,a2
   12144:	cc10                	sw	a2,24(s0)
   12146:	ce91                	beqz	a3,12162 <__swsetup_r+0x5a>
   12148:	40b2                	lw	ra,12(sp)
   1214a:	4422                	lw	s0,8(sp)
   1214c:	4492                	lw	s1,4(sp)
   1214e:	0141                	addi	sp,sp,16
   12150:	8082                	ret
   12152:	0027f613          	andi	a2,a5,2
   12156:	4581                	li	a1,0
   12158:	e211                	bnez	a2,1215c <__swsetup_r+0x54>
   1215a:	484c                	lw	a1,20(s0)
   1215c:	c40c                	sw	a1,8(s0)
   1215e:	4501                	li	a0,0
   12160:	f6e5                	bnez	a3,12148 <__swsetup_r+0x40>
   12162:	0807f793          	andi	a5,a5,128
   12166:	d3ed                	beqz	a5,12148 <__swsetup_r+0x40>
   12168:	04076713          	ori	a4,a4,64
   1216c:	00e41623          	sh	a4,12(s0)
   12170:	557d                	li	a0,-1
   12172:	bfd9                	j	12148 <__swsetup_r+0x40>
   12174:	853e                	mv	a0,a5
   12176:	23e1                	jal	1273e <__sinit>
   12178:	00c41703          	lh	a4,12(s0)
   1217c:	01071793          	slli	a5,a4,0x10
   12180:	00877693          	andi	a3,a4,8
   12184:	83c1                	srli	a5,a5,0x10
   12186:	f6c5                	bnez	a3,1212e <__swsetup_r+0x26>
   12188:	0107f693          	andi	a3,a5,16
   1218c:	c2a5                	beqz	a3,121ec <__swsetup_r+0xe4>
   1218e:	8b91                	andi	a5,a5,4
   12190:	eb9d                	bnez	a5,121c6 <__swsetup_r+0xbe>
   12192:	4814                	lw	a3,16(s0)
   12194:	00876713          	ori	a4,a4,8
   12198:	01071793          	slli	a5,a4,0x10
   1219c:	00e41623          	sh	a4,12(s0)
   121a0:	83c1                	srli	a5,a5,0x10
   121a2:	fac1                	bnez	a3,12132 <__swsetup_r+0x2a>
   121a4:	2807f613          	andi	a2,a5,640
   121a8:	20000593          	li	a1,512
   121ac:	f8b603e3          	beq	a2,a1,12132 <__swsetup_r+0x2a>
   121b0:	85a2                	mv	a1,s0
   121b2:	8526                	mv	a0,s1
   121b4:	17f020ef          	jal	ra,14b32 <__smakebuf_r>
   121b8:	00c41703          	lh	a4,12(s0)
   121bc:	4814                	lw	a3,16(s0)
   121be:	01071793          	slli	a5,a4,0x10
   121c2:	83c1                	srli	a5,a5,0x10
   121c4:	b7bd                	j	12132 <__swsetup_r+0x2a>
   121c6:	580c                	lw	a1,48(s0)
   121c8:	c999                	beqz	a1,121de <__swsetup_r+0xd6>
   121ca:	04040793          	addi	a5,s0,64
   121ce:	00f58663          	beq	a1,a5,121da <__swsetup_r+0xd2>
   121d2:	8526                	mv	a0,s1
   121d4:	2d49                	jal	12866 <_free_r>
   121d6:	00c41703          	lh	a4,12(s0)
   121da:	02042823          	sw	zero,48(s0)
   121de:	4814                	lw	a3,16(s0)
   121e0:	fdb77713          	andi	a4,a4,-37
   121e4:	00042223          	sw	zero,4(s0)
   121e8:	c014                	sw	a3,0(s0)
   121ea:	b76d                	j	12194 <__swsetup_r+0x8c>
   121ec:	47a5                	li	a5,9
   121ee:	c09c                	sw	a5,0(s1)
   121f0:	04076713          	ori	a4,a4,64
   121f4:	00e41623          	sh	a4,12(s0)
   121f8:	557d                	li	a0,-1
   121fa:	b7b9                	j	12148 <__swsetup_r+0x40>

000121fc <__call_exitprocs>:
   121fc:	7179                	addi	sp,sp,-48
   121fe:	cc52                	sw	s4,24(sp)
   12200:	1b81aa03          	lw	s4,440(gp) # 1f9c8 <_global_impure_ptr>
   12204:	d04a                	sw	s2,32(sp)
   12206:	d606                	sw	ra,44(sp)
   12208:	148a2903          	lw	s2,328(s4)
   1220c:	d422                	sw	s0,40(sp)
   1220e:	d226                	sw	s1,36(sp)
   12210:	ce4e                	sw	s3,28(sp)
   12212:	ca56                	sw	s5,20(sp)
   12214:	c85a                	sw	s6,16(sp)
   12216:	c65e                	sw	s7,12(sp)
   12218:	c462                	sw	s8,8(sp)
   1221a:	02090863          	beqz	s2,1224a <__call_exitprocs+0x4e>
   1221e:	8b2a                	mv	s6,a0
   12220:	8bae                	mv	s7,a1
   12222:	4a85                	li	s5,1
   12224:	59fd                	li	s3,-1
   12226:	00492483          	lw	s1,4(s2)
   1222a:	fff48413          	addi	s0,s1,-1
   1222e:	00044e63          	bltz	s0,1224a <__call_exitprocs+0x4e>
   12232:	048a                	slli	s1,s1,0x2
   12234:	94ca                	add	s1,s1,s2
   12236:	020b8663          	beqz	s7,12262 <__call_exitprocs+0x66>
   1223a:	1044a783          	lw	a5,260(s1)
   1223e:	03778263          	beq	a5,s7,12262 <__call_exitprocs+0x66>
   12242:	147d                	addi	s0,s0,-1
   12244:	14f1                	addi	s1,s1,-4
   12246:	ff3418e3          	bne	s0,s3,12236 <__call_exitprocs+0x3a>
   1224a:	50b2                	lw	ra,44(sp)
   1224c:	5422                	lw	s0,40(sp)
   1224e:	5492                	lw	s1,36(sp)
   12250:	5902                	lw	s2,32(sp)
   12252:	49f2                	lw	s3,28(sp)
   12254:	4a62                	lw	s4,24(sp)
   12256:	4ad2                	lw	s5,20(sp)
   12258:	4b42                	lw	s6,16(sp)
   1225a:	4bb2                	lw	s7,12(sp)
   1225c:	4c22                	lw	s8,8(sp)
   1225e:	6145                	addi	sp,sp,48
   12260:	8082                	ret
   12262:	00492783          	lw	a5,4(s2)
   12266:	40d4                	lw	a3,4(s1)
   12268:	17fd                	addi	a5,a5,-1
   1226a:	04878263          	beq	a5,s0,122ae <__call_exitprocs+0xb2>
   1226e:	0004a223          	sw	zero,4(s1)
   12272:	dae1                	beqz	a3,12242 <__call_exitprocs+0x46>
   12274:	18892783          	lw	a5,392(s2)
   12278:	008a9733          	sll	a4,s5,s0
   1227c:	00492c03          	lw	s8,4(s2)
   12280:	8ff9                	and	a5,a5,a4
   12282:	ef89                	bnez	a5,1229c <__call_exitprocs+0xa0>
   12284:	9682                	jalr	a3
   12286:	00492703          	lw	a4,4(s2)
   1228a:	148a2783          	lw	a5,328(s4)
   1228e:	01871463          	bne	a4,s8,12296 <__call_exitprocs+0x9a>
   12292:	fb2788e3          	beq	a5,s2,12242 <__call_exitprocs+0x46>
   12296:	dbd5                	beqz	a5,1224a <__call_exitprocs+0x4e>
   12298:	893e                	mv	s2,a5
   1229a:	b771                	j	12226 <__call_exitprocs+0x2a>
   1229c:	18c92783          	lw	a5,396(s2)
   122a0:	0844a583          	lw	a1,132(s1)
   122a4:	8f7d                	and	a4,a4,a5
   122a6:	e719                	bnez	a4,122b4 <__call_exitprocs+0xb8>
   122a8:	855a                	mv	a0,s6
   122aa:	9682                	jalr	a3
   122ac:	bfe9                	j	12286 <__call_exitprocs+0x8a>
   122ae:	00892223          	sw	s0,4(s2)
   122b2:	b7c1                	j	12272 <__call_exitprocs+0x76>
   122b4:	852e                	mv	a0,a1
   122b6:	9682                	jalr	a3
   122b8:	b7f9                	j	12286 <__call_exitprocs+0x8a>

000122ba <atexit>:
   122ba:	85aa                	mv	a1,a0
   122bc:	4681                	li	a3,0
   122be:	4601                	li	a2,0
   122c0:	4501                	li	a0,0
   122c2:	2310606f          	j	18cf2 <__register_exitproc>

000122c6 <__sflush_r>:
   122c6:	00c59783          	lh	a5,12(a1)
   122ca:	1101                	addi	sp,sp,-32
   122cc:	cc22                	sw	s0,24(sp)
   122ce:	c64e                	sw	s3,12(sp)
   122d0:	ce06                	sw	ra,28(sp)
   122d2:	ca26                	sw	s1,20(sp)
   122d4:	c84a                	sw	s2,16(sp)
   122d6:	0087f693          	andi	a3,a5,8
   122da:	842e                	mv	s0,a1
   122dc:	89aa                	mv	s3,a0
   122de:	ead5                	bnez	a3,12392 <__sflush_r+0xcc>
   122e0:	6705                	lui	a4,0x1
   122e2:	80070713          	addi	a4,a4,-2048 # 800 <main-0xf874>
   122e6:	41d4                	lw	a3,4(a1)
   122e8:	8fd9                	or	a5,a5,a4
   122ea:	00f59623          	sh	a5,12(a1)
   122ee:	10d05063          	blez	a3,123ee <__sflush_r+0x128>
   122f2:	5418                	lw	a4,40(s0)
   122f4:	c759                	beqz	a4,12382 <__sflush_r+0xbc>
   122f6:	07c2                	slli	a5,a5,0x10
   122f8:	83c1                	srli	a5,a5,0x10
   122fa:	6685                	lui	a3,0x1
   122fc:	0009a483          	lw	s1,0(s3)
   12300:	8efd                	and	a3,a3,a5
   12302:	0009a023          	sw	zero,0(s3)
   12306:	4c4c                	lw	a1,28(s0)
   12308:	e6fd                	bnez	a3,123f6 <__sflush_r+0x130>
   1230a:	4685                	li	a3,1
   1230c:	4601                	li	a2,0
   1230e:	854e                	mv	a0,s3
   12310:	9702                	jalr	a4
   12312:	57fd                	li	a5,-1
   12314:	10f50863          	beq	a0,a5,12424 <__sflush_r+0x15e>
   12318:	00c45783          	lhu	a5,12(s0)
   1231c:	5418                	lw	a4,40(s0)
   1231e:	4c4c                	lw	a1,28(s0)
   12320:	8b91                	andi	a5,a5,4
   12322:	c799                	beqz	a5,12330 <__sflush_r+0x6a>
   12324:	4054                	lw	a3,4(s0)
   12326:	581c                	lw	a5,48(s0)
   12328:	8d15                	sub	a0,a0,a3
   1232a:	c399                	beqz	a5,12330 <__sflush_r+0x6a>
   1232c:	5c5c                	lw	a5,60(s0)
   1232e:	8d1d                	sub	a0,a0,a5
   12330:	862a                	mv	a2,a0
   12332:	4681                	li	a3,0
   12334:	854e                	mv	a0,s3
   12336:	9702                	jalr	a4
   12338:	57fd                	li	a5,-1
   1233a:	0cf51063          	bne	a0,a5,123fa <__sflush_r+0x134>
   1233e:	0009a703          	lw	a4,0(s3)
   12342:	00c41783          	lh	a5,12(s0)
   12346:	10070063          	beqz	a4,12446 <__sflush_r+0x180>
   1234a:	46f5                	li	a3,29
   1234c:	00d70563          	beq	a4,a3,12356 <__sflush_r+0x90>
   12350:	46d9                	li	a3,22
   12352:	08d71363          	bne	a4,a3,123d8 <__sflush_r+0x112>
   12356:	4814                	lw	a3,16(s0)
   12358:	777d                	lui	a4,0xfffff
   1235a:	7ff70713          	addi	a4,a4,2047 # fffff7ff <__BSS_END__+0xfffdfdc7>
   1235e:	8ff9                	and	a5,a5,a4
   12360:	00f41623          	sh	a5,12(s0)
   12364:	00042223          	sw	zero,4(s0)
   12368:	c014                	sw	a3,0(s0)
   1236a:	580c                	lw	a1,48(s0)
   1236c:	0099a023          	sw	s1,0(s3)
   12370:	c989                	beqz	a1,12382 <__sflush_r+0xbc>
   12372:	04040793          	addi	a5,s0,64
   12376:	00f58463          	beq	a1,a5,1237e <__sflush_r+0xb8>
   1237a:	854e                	mv	a0,s3
   1237c:	21ed                	jal	12866 <_free_r>
   1237e:	02042823          	sw	zero,48(s0)
   12382:	4501                	li	a0,0
   12384:	40f2                	lw	ra,28(sp)
   12386:	4462                	lw	s0,24(sp)
   12388:	44d2                	lw	s1,20(sp)
   1238a:	4942                	lw	s2,16(sp)
   1238c:	49b2                	lw	s3,12(sp)
   1238e:	6105                	addi	sp,sp,32
   12390:	8082                	ret
   12392:	0105a903          	lw	s2,16(a1)
   12396:	fe0906e3          	beqz	s2,12382 <__sflush_r+0xbc>
   1239a:	4184                	lw	s1,0(a1)
   1239c:	01079713          	slli	a4,a5,0x10
   123a0:	8341                	srli	a4,a4,0x10
   123a2:	8b0d                	andi	a4,a4,3
   123a4:	0125a023          	sw	s2,0(a1)
   123a8:	412484b3          	sub	s1,s1,s2
   123ac:	4781                	li	a5,0
   123ae:	e311                	bnez	a4,123b2 <__sflush_r+0xec>
   123b0:	49dc                	lw	a5,20(a1)
   123b2:	c41c                	sw	a5,8(s0)
   123b4:	00904663          	bgtz	s1,123c0 <__sflush_r+0xfa>
   123b8:	b7e9                	j	12382 <__sflush_r+0xbc>
   123ba:	992a                	add	s2,s2,a0
   123bc:	fc9053e3          	blez	s1,12382 <__sflush_r+0xbc>
   123c0:	505c                	lw	a5,36(s0)
   123c2:	4c4c                	lw	a1,28(s0)
   123c4:	86a6                	mv	a3,s1
   123c6:	864a                	mv	a2,s2
   123c8:	854e                	mv	a0,s3
   123ca:	9782                	jalr	a5
   123cc:	8c89                	sub	s1,s1,a0
   123ce:	fea046e3          	bgtz	a0,123ba <__sflush_r+0xf4>
   123d2:	00c45783          	lhu	a5,12(s0)
   123d6:	557d                	li	a0,-1
   123d8:	0407e793          	ori	a5,a5,64
   123dc:	40f2                	lw	ra,28(sp)
   123de:	00f41623          	sh	a5,12(s0)
   123e2:	4462                	lw	s0,24(sp)
   123e4:	44d2                	lw	s1,20(sp)
   123e6:	4942                	lw	s2,16(sp)
   123e8:	49b2                	lw	s3,12(sp)
   123ea:	6105                	addi	sp,sp,32
   123ec:	8082                	ret
   123ee:	5dd8                	lw	a4,60(a1)
   123f0:	f0e041e3          	bgtz	a4,122f2 <__sflush_r+0x2c>
   123f4:	b779                	j	12382 <__sflush_r+0xbc>
   123f6:	4828                	lw	a0,80(s0)
   123f8:	b725                	j	12320 <__sflush_r+0x5a>
   123fa:	00c45783          	lhu	a5,12(s0)
   123fe:	777d                	lui	a4,0xfffff
   12400:	7ff70713          	addi	a4,a4,2047 # fffff7ff <__BSS_END__+0xfffdfdc7>
   12404:	8ff9                	and	a5,a5,a4
   12406:	4814                	lw	a3,16(s0)
   12408:	07c2                	slli	a5,a5,0x10
   1240a:	87c1                	srai	a5,a5,0x10
   1240c:	00c7d713          	srli	a4,a5,0xc
   12410:	00f41623          	sh	a5,12(s0)
   12414:	00042223          	sw	zero,4(s0)
   12418:	c014                	sw	a3,0(s0)
   1241a:	00177793          	andi	a5,a4,1
   1241e:	d7b1                	beqz	a5,1236a <__sflush_r+0xa4>
   12420:	c828                	sw	a0,80(s0)
   12422:	b7a1                	j	1236a <__sflush_r+0xa4>
   12424:	0009a783          	lw	a5,0(s3)
   12428:	ee0788e3          	beqz	a5,12318 <__sflush_r+0x52>
   1242c:	4775                	li	a4,29
   1242e:	02e78263          	beq	a5,a4,12452 <__sflush_r+0x18c>
   12432:	4759                	li	a4,22
   12434:	00e78f63          	beq	a5,a4,12452 <__sflush_r+0x18c>
   12438:	00c45783          	lhu	a5,12(s0)
   1243c:	0407e793          	ori	a5,a5,64
   12440:	00f41623          	sh	a5,12(s0)
   12444:	b781                	j	12384 <__sflush_r+0xbe>
   12446:	777d                	lui	a4,0xfffff
   12448:	7ff70713          	addi	a4,a4,2047 # fffff7ff <__BSS_END__+0xfffdfdc7>
   1244c:	4814                	lw	a3,16(s0)
   1244e:	8ff9                	and	a5,a5,a4
   12450:	bf75                	j	1240c <__sflush_r+0x146>
   12452:	0099a023          	sw	s1,0(s3)
   12456:	4501                	li	a0,0
   12458:	b735                	j	12384 <__sflush_r+0xbe>

0001245a <_fflush_r>:
   1245a:	1101                	addi	sp,sp,-32
   1245c:	cc22                	sw	s0,24(sp)
   1245e:	ce06                	sw	ra,28(sp)
   12460:	842a                	mv	s0,a0
   12462:	c119                	beqz	a0,12468 <_fflush_r+0xe>
   12464:	5d1c                	lw	a5,56(a0)
   12466:	cb89                	beqz	a5,12478 <_fflush_r+0x1e>
   12468:	00c59783          	lh	a5,12(a1)
   1246c:	ef81                	bnez	a5,12484 <_fflush_r+0x2a>
   1246e:	40f2                	lw	ra,28(sp)
   12470:	4462                	lw	s0,24(sp)
   12472:	4501                	li	a0,0
   12474:	6105                	addi	sp,sp,32
   12476:	8082                	ret
   12478:	c62e                	sw	a1,12(sp)
   1247a:	24d1                	jal	1273e <__sinit>
   1247c:	45b2                	lw	a1,12(sp)
   1247e:	00c59783          	lh	a5,12(a1)
   12482:	d7f5                	beqz	a5,1246e <_fflush_r+0x14>
   12484:	8522                	mv	a0,s0
   12486:	4462                	lw	s0,24(sp)
   12488:	40f2                	lw	ra,28(sp)
   1248a:	6105                	addi	sp,sp,32
   1248c:	bd2d                	j	122c6 <__sflush_r>

0001248e <fflush>:
   1248e:	cd15                	beqz	a0,124ca <fflush+0x3c>
   12490:	1101                	addi	sp,sp,-32
   12492:	cc22                	sw	s0,24(sp)
   12494:	842a                	mv	s0,a0
   12496:	1c01a503          	lw	a0,448(gp) # 1f9d0 <_impure_ptr>
   1249a:	ce06                	sw	ra,28(sp)
   1249c:	c119                	beqz	a0,124a2 <fflush+0x14>
   1249e:	5d1c                	lw	a5,56(a0)
   124a0:	cf91                	beqz	a5,124bc <fflush+0x2e>
   124a2:	00c41783          	lh	a5,12(s0)
   124a6:	e791                	bnez	a5,124b2 <fflush+0x24>
   124a8:	40f2                	lw	ra,28(sp)
   124aa:	4462                	lw	s0,24(sp)
   124ac:	4501                	li	a0,0
   124ae:	6105                	addi	sp,sp,32
   124b0:	8082                	ret
   124b2:	85a2                	mv	a1,s0
   124b4:	4462                	lw	s0,24(sp)
   124b6:	40f2                	lw	ra,28(sp)
   124b8:	6105                	addi	sp,sp,32
   124ba:	b531                	j	122c6 <__sflush_r>
   124bc:	c62a                	sw	a0,12(sp)
   124be:	2441                	jal	1273e <__sinit>
   124c0:	00c41783          	lh	a5,12(s0)
   124c4:	4532                	lw	a0,12(sp)
   124c6:	d3ed                	beqz	a5,124a8 <fflush+0x1a>
   124c8:	b7ed                	j	124b2 <fflush+0x24>
   124ca:	1b81a503          	lw	a0,440(gp) # 1f9c8 <_global_impure_ptr>
   124ce:	65c9                	lui	a1,0x12
   124d0:	45a58593          	addi	a1,a1,1114 # 1245a <_fflush_r>
   124d4:	a52d                	j	12afe <_fwalk_reent>

000124d6 <__fp_lock>:
   124d6:	4501                	li	a0,0
   124d8:	8082                	ret

000124da <_cleanup_r>:
   124da:	65e5                	lui	a1,0x19
   124dc:	e8458593          	addi	a1,a1,-380 # 18e84 <_fclose_r>
   124e0:	ad39                	j	12afe <_fwalk_reent>

000124e2 <__fp_unlock>:
   124e2:	4501                	li	a0,0
   124e4:	8082                	ret

000124e6 <__sinit.part.0>:
   124e6:	1101                	addi	sp,sp,-32
   124e8:	67c9                	lui	a5,0x12
   124ea:	ce06                	sw	ra,28(sp)
   124ec:	cc22                	sw	s0,24(sp)
   124ee:	ca26                	sw	s1,20(sp)
   124f0:	c84a                	sw	s2,16(sp)
   124f2:	c64e                	sw	s3,12(sp)
   124f4:	c452                	sw	s4,8(sp)
   124f6:	c256                	sw	s5,4(sp)
   124f8:	c05a                	sw	s6,0(sp)
   124fa:	4140                	lw	s0,4(a0)
   124fc:	4da78793          	addi	a5,a5,1242 # 124da <_cleanup_r>
   12500:	dd5c                	sw	a5,60(a0)
   12502:	2ec50713          	addi	a4,a0,748
   12506:	478d                	li	a5,3
   12508:	2ee52423          	sw	a4,744(a0)
   1250c:	2ef52223          	sw	a5,740(a0)
   12510:	2e052023          	sw	zero,736(a0)
   12514:	4791                	li	a5,4
   12516:	892a                	mv	s2,a0
   12518:	c45c                	sw	a5,12(s0)
   1251a:	4621                	li	a2,8
   1251c:	4581                	li	a1,0
   1251e:	06042223          	sw	zero,100(s0)
   12522:	00042023          	sw	zero,0(s0)
   12526:	00042223          	sw	zero,4(s0)
   1252a:	00042423          	sw	zero,8(s0)
   1252e:	00042823          	sw	zero,16(s0)
   12532:	00042a23          	sw	zero,20(s0)
   12536:	00042c23          	sw	zero,24(s0)
   1253a:	05c40513          	addi	a0,s0,92
   1253e:	dd9fd0ef          	jal	ra,10316 <memset>
   12542:	6b59                	lui	s6,0x16
   12544:	00892483          	lw	s1,8(s2)
   12548:	6ad9                	lui	s5,0x16
   1254a:	6a59                	lui	s4,0x16
   1254c:	69d9                	lui	s3,0x16
   1254e:	ffeb0b13          	addi	s6,s6,-2 # 15ffe <__sread>
   12552:	03aa8a93          	addi	s5,s5,58 # 1603a <__swrite>
   12556:	08ea0a13          	addi	s4,s4,142 # 1608e <__sseek>
   1255a:	0d098993          	addi	s3,s3,208 # 160d0 <__sclose>
   1255e:	67c1                	lui	a5,0x10
   12560:	03642023          	sw	s6,32(s0)
   12564:	03542223          	sw	s5,36(s0)
   12568:	03442423          	sw	s4,40(s0)
   1256c:	03342623          	sw	s3,44(s0)
   12570:	cc40                	sw	s0,28(s0)
   12572:	07a5                	addi	a5,a5,9
   12574:	c4dc                	sw	a5,12(s1)
   12576:	4621                	li	a2,8
   12578:	4581                	li	a1,0
   1257a:	0604a223          	sw	zero,100(s1)
   1257e:	0004a023          	sw	zero,0(s1)
   12582:	0004a223          	sw	zero,4(s1)
   12586:	0004a423          	sw	zero,8(s1)
   1258a:	0004a823          	sw	zero,16(s1)
   1258e:	0004aa23          	sw	zero,20(s1)
   12592:	0004ac23          	sw	zero,24(s1)
   12596:	05c48513          	addi	a0,s1,92
   1259a:	d7dfd0ef          	jal	ra,10316 <memset>
   1259e:	00c92403          	lw	s0,12(s2)
   125a2:	000207b7          	lui	a5,0x20
   125a6:	0364a023          	sw	s6,32(s1)
   125aa:	0354a223          	sw	s5,36(s1)
   125ae:	0344a423          	sw	s4,40(s1)
   125b2:	0334a623          	sw	s3,44(s1)
   125b6:	ccc4                	sw	s1,28(s1)
   125b8:	07c9                	addi	a5,a5,18
   125ba:	c45c                	sw	a5,12(s0)
   125bc:	06042223          	sw	zero,100(s0)
   125c0:	00042023          	sw	zero,0(s0)
   125c4:	00042223          	sw	zero,4(s0)
   125c8:	00042423          	sw	zero,8(s0)
   125cc:	00042823          	sw	zero,16(s0)
   125d0:	00042a23          	sw	zero,20(s0)
   125d4:	00042c23          	sw	zero,24(s0)
   125d8:	05c40513          	addi	a0,s0,92
   125dc:	4621                	li	a2,8
   125de:	4581                	li	a1,0
   125e0:	d37fd0ef          	jal	ra,10316 <memset>
   125e4:	40f2                	lw	ra,28(sp)
   125e6:	03642023          	sw	s6,32(s0)
   125ea:	03542223          	sw	s5,36(s0)
   125ee:	03442423          	sw	s4,40(s0)
   125f2:	03342623          	sw	s3,44(s0)
   125f6:	cc40                	sw	s0,28(s0)
   125f8:	4462                	lw	s0,24(sp)
   125fa:	4785                	li	a5,1
   125fc:	02f92c23          	sw	a5,56(s2)
   12600:	44d2                	lw	s1,20(sp)
   12602:	4942                	lw	s2,16(sp)
   12604:	49b2                	lw	s3,12(sp)
   12606:	4a22                	lw	s4,8(sp)
   12608:	4a92                	lw	s5,4(sp)
   1260a:	4b02                	lw	s6,0(sp)
   1260c:	6105                	addi	sp,sp,32
   1260e:	8082                	ret

00012610 <__sfmoreglue>:
   12610:	1141                	addi	sp,sp,-16
   12612:	c226                	sw	s1,4(sp)
   12614:	06800793          	li	a5,104
   12618:	fff58493          	addi	s1,a1,-1
   1261c:	02f484b3          	mul	s1,s1,a5
   12620:	c04a                	sw	s2,0(sp)
   12622:	892e                	mv	s2,a1
   12624:	c422                	sw	s0,8(sp)
   12626:	c606                	sw	ra,12(sp)
   12628:	07448593          	addi	a1,s1,116
   1262c:	69a020ef          	jal	ra,14cc6 <_malloc_r>
   12630:	842a                	mv	s0,a0
   12632:	cd01                	beqz	a0,1264a <__sfmoreglue+0x3a>
   12634:	0531                	addi	a0,a0,12
   12636:	00042023          	sw	zero,0(s0)
   1263a:	01242223          	sw	s2,4(s0)
   1263e:	c408                	sw	a0,8(s0)
   12640:	06848613          	addi	a2,s1,104
   12644:	4581                	li	a1,0
   12646:	cd1fd0ef          	jal	ra,10316 <memset>
   1264a:	40b2                	lw	ra,12(sp)
   1264c:	8522                	mv	a0,s0
   1264e:	4422                	lw	s0,8(sp)
   12650:	4492                	lw	s1,4(sp)
   12652:	4902                	lw	s2,0(sp)
   12654:	0141                	addi	sp,sp,16
   12656:	8082                	ret

00012658 <__sfp>:
   12658:	1101                	addi	sp,sp,-32
   1265a:	c84a                	sw	s2,16(sp)
   1265c:	1b81a903          	lw	s2,440(gp) # 1f9c8 <_global_impure_ptr>
   12660:	c64e                	sw	s3,12(sp)
   12662:	ce06                	sw	ra,28(sp)
   12664:	03892783          	lw	a5,56(s2)
   12668:	cc22                	sw	s0,24(sp)
   1266a:	ca26                	sw	s1,20(sp)
   1266c:	c452                	sw	s4,8(sp)
   1266e:	89aa                	mv	s3,a0
   12670:	c3d1                	beqz	a5,126f4 <__sfp+0x9c>
   12672:	2e090913          	addi	s2,s2,736
   12676:	54fd                	li	s1,-1
   12678:	4a11                	li	s4,4
   1267a:	00492783          	lw	a5,4(s2)
   1267e:	00892403          	lw	s0,8(s2)
   12682:	17fd                	addi	a5,a5,-1
   12684:	0007d763          	bgez	a5,12692 <__sfp+0x3a>
   12688:	a08d                	j	126ea <__sfp+0x92>
   1268a:	06840413          	addi	s0,s0,104
   1268e:	04978e63          	beq	a5,s1,126ea <__sfp+0x92>
   12692:	00c41703          	lh	a4,12(s0)
   12696:	17fd                	addi	a5,a5,-1
   12698:	fb6d                	bnez	a4,1268a <__sfp+0x32>
   1269a:	77c1                	lui	a5,0xffff0
   1269c:	0785                	addi	a5,a5,1
   1269e:	06042223          	sw	zero,100(s0)
   126a2:	00042023          	sw	zero,0(s0)
   126a6:	00042223          	sw	zero,4(s0)
   126aa:	00042423          	sw	zero,8(s0)
   126ae:	c45c                	sw	a5,12(s0)
   126b0:	00042823          	sw	zero,16(s0)
   126b4:	00042a23          	sw	zero,20(s0)
   126b8:	00042c23          	sw	zero,24(s0)
   126bc:	4621                	li	a2,8
   126be:	4581                	li	a1,0
   126c0:	05c40513          	addi	a0,s0,92
   126c4:	c53fd0ef          	jal	ra,10316 <memset>
   126c8:	02042823          	sw	zero,48(s0)
   126cc:	02042a23          	sw	zero,52(s0)
   126d0:	04042223          	sw	zero,68(s0)
   126d4:	04042423          	sw	zero,72(s0)
   126d8:	40f2                	lw	ra,28(sp)
   126da:	8522                	mv	a0,s0
   126dc:	4462                	lw	s0,24(sp)
   126de:	44d2                	lw	s1,20(sp)
   126e0:	4942                	lw	s2,16(sp)
   126e2:	49b2                	lw	s3,12(sp)
   126e4:	4a22                	lw	s4,8(sp)
   126e6:	6105                	addi	sp,sp,32
   126e8:	8082                	ret
   126ea:	00092403          	lw	s0,0(s2)
   126ee:	c411                	beqz	s0,126fa <__sfp+0xa2>
   126f0:	8922                	mv	s2,s0
   126f2:	b761                	j	1267a <__sfp+0x22>
   126f4:	854a                	mv	a0,s2
   126f6:	3bc5                	jal	124e6 <__sinit.part.0>
   126f8:	bfad                	j	12672 <__sfp+0x1a>
   126fa:	1ac00593          	li	a1,428
   126fe:	854e                	mv	a0,s3
   12700:	5c6020ef          	jal	ra,14cc6 <_malloc_r>
   12704:	842a                	mv	s0,a0
   12706:	c105                	beqz	a0,12726 <__sfp+0xce>
   12708:	0531                	addi	a0,a0,12
   1270a:	00042023          	sw	zero,0(s0)
   1270e:	01442223          	sw	s4,4(s0)
   12712:	c408                	sw	a0,8(s0)
   12714:	1a000613          	li	a2,416
   12718:	4581                	li	a1,0
   1271a:	bfdfd0ef          	jal	ra,10316 <memset>
   1271e:	00892023          	sw	s0,0(s2)
   12722:	8922                	mv	s2,s0
   12724:	bf99                	j	1267a <__sfp+0x22>
   12726:	00092023          	sw	zero,0(s2)
   1272a:	47b1                	li	a5,12
   1272c:	00f9a023          	sw	a5,0(s3)
   12730:	b765                	j	126d8 <__sfp+0x80>

00012732 <_cleanup>:
   12732:	1b81a503          	lw	a0,440(gp) # 1f9c8 <_global_impure_ptr>
   12736:	65e5                	lui	a1,0x19
   12738:	e8458593          	addi	a1,a1,-380 # 18e84 <_fclose_r>
   1273c:	a6c9                	j	12afe <_fwalk_reent>

0001273e <__sinit>:
   1273e:	5d1c                	lw	a5,56(a0)
   12740:	c391                	beqz	a5,12744 <__sinit+0x6>
   12742:	8082                	ret
   12744:	b34d                	j	124e6 <__sinit.part.0>

00012746 <__sfp_lock_acquire>:
   12746:	8082                	ret

00012748 <__sfp_lock_release>:
   12748:	8082                	ret

0001274a <__sinit_lock_acquire>:
   1274a:	8082                	ret

0001274c <__sinit_lock_release>:
   1274c:	8082                	ret

0001274e <__fp_lock_all>:
   1274e:	1c01a503          	lw	a0,448(gp) # 1f9d0 <_impure_ptr>
   12752:	65c9                	lui	a1,0x12
   12754:	4d658593          	addi	a1,a1,1238 # 124d6 <__fp_lock>
   12758:	ae2d                	j	12a92 <_fwalk>

0001275a <__fp_unlock_all>:
   1275a:	1c01a503          	lw	a0,448(gp) # 1f9d0 <_impure_ptr>
   1275e:	65c9                	lui	a1,0x12
   12760:	4e258593          	addi	a1,a1,1250 # 124e2 <__fp_unlock>
   12764:	a63d                	j	12a92 <_fwalk>

00012766 <__libc_fini_array>:
   12766:	1141                	addi	sp,sp,-16
   12768:	c422                	sw	s0,8(sp)
   1276a:	0001f7b7          	lui	a5,0x1f
   1276e:	0001f437          	lui	s0,0x1f
   12772:	00c78793          	addi	a5,a5,12 # 1f00c <__do_global_dtors_aux_fini_array_entry>
   12776:	01040413          	addi	s0,s0,16 # 1f010 <impure_data>
   1277a:	8c1d                	sub	s0,s0,a5
   1277c:	c226                	sw	s1,4(sp)
   1277e:	c606                	sw	ra,12(sp)
   12780:	40245493          	srai	s1,s0,0x2
   12784:	c881                	beqz	s1,12794 <__libc_fini_array+0x2e>
   12786:	1471                	addi	s0,s0,-4
   12788:	943e                	add	s0,s0,a5
   1278a:	401c                	lw	a5,0(s0)
   1278c:	14fd                	addi	s1,s1,-1
   1278e:	1471                	addi	s0,s0,-4
   12790:	9782                	jalr	a5
   12792:	fce5                	bnez	s1,1278a <__libc_fini_array+0x24>
   12794:	40b2                	lw	ra,12(sp)
   12796:	4422                	lw	s0,8(sp)
   12798:	4492                	lw	s1,4(sp)
   1279a:	0141                	addi	sp,sp,16
   1279c:	8082                	ret

0001279e <_malloc_trim_r>:
   1279e:	1101                	addi	sp,sp,-32
   127a0:	c64e                	sw	s3,12(sp)
   127a2:	cc22                	sw	s0,24(sp)
   127a4:	ca26                	sw	s1,20(sp)
   127a6:	c84a                	sw	s2,16(sp)
   127a8:	c452                	sw	s4,8(sp)
   127aa:	ce06                	sw	ra,28(sp)
   127ac:	8a2e                	mv	s4,a1
   127ae:	892a                	mv	s2,a0
   127b0:	c2818993          	addi	s3,gp,-984 # 1f438 <__malloc_av_>
   127b4:	34b020ef          	jal	ra,152fe <__malloc_lock>
   127b8:	0089a703          	lw	a4,8(s3)
   127bc:	6785                	lui	a5,0x1
   127be:	fef78413          	addi	s0,a5,-17 # fef <main-0xf085>
   127c2:	4344                	lw	s1,4(a4)
   127c4:	41440433          	sub	s0,s0,s4
   127c8:	98f1                	andi	s1,s1,-4
   127ca:	9426                	add	s0,s0,s1
   127cc:	8031                	srli	s0,s0,0xc
   127ce:	147d                	addi	s0,s0,-1
   127d0:	0432                	slli	s0,s0,0xc
   127d2:	00f44b63          	blt	s0,a5,127e8 <_malloc_trim_r+0x4a>
   127d6:	4581                	li	a1,0
   127d8:	854a                	mv	a0,s2
   127da:	766030ef          	jal	ra,15f40 <_sbrk_r>
   127de:	0089a783          	lw	a5,8(s3)
   127e2:	97a6                	add	a5,a5,s1
   127e4:	00f50e63          	beq	a0,a5,12800 <_malloc_trim_r+0x62>
   127e8:	854a                	mv	a0,s2
   127ea:	317020ef          	jal	ra,15300 <__malloc_unlock>
   127ee:	40f2                	lw	ra,28(sp)
   127f0:	4462                	lw	s0,24(sp)
   127f2:	44d2                	lw	s1,20(sp)
   127f4:	4942                	lw	s2,16(sp)
   127f6:	49b2                	lw	s3,12(sp)
   127f8:	4a22                	lw	s4,8(sp)
   127fa:	4501                	li	a0,0
   127fc:	6105                	addi	sp,sp,32
   127fe:	8082                	ret
   12800:	408005b3          	neg	a1,s0
   12804:	854a                	mv	a0,s2
   12806:	73a030ef          	jal	ra,15f40 <_sbrk_r>
   1280a:	57fd                	li	a5,-1
   1280c:	02f50963          	beq	a0,a5,1283e <_malloc_trim_r+0xa0>
   12810:	20018793          	addi	a5,gp,512 # 1fa10 <__malloc_current_mallinfo>
   12814:	4398                	lw	a4,0(a5)
   12816:	0089a683          	lw	a3,8(s3)
   1281a:	8c81                	sub	s1,s1,s0
   1281c:	0014e493          	ori	s1,s1,1
   12820:	8f01                	sub	a4,a4,s0
   12822:	854a                	mv	a0,s2
   12824:	c2c4                	sw	s1,4(a3)
   12826:	c398                	sw	a4,0(a5)
   12828:	2d9020ef          	jal	ra,15300 <__malloc_unlock>
   1282c:	40f2                	lw	ra,28(sp)
   1282e:	4462                	lw	s0,24(sp)
   12830:	44d2                	lw	s1,20(sp)
   12832:	4942                	lw	s2,16(sp)
   12834:	49b2                	lw	s3,12(sp)
   12836:	4a22                	lw	s4,8(sp)
   12838:	4505                	li	a0,1
   1283a:	6105                	addi	sp,sp,32
   1283c:	8082                	ret
   1283e:	4581                	li	a1,0
   12840:	854a                	mv	a0,s2
   12842:	6fe030ef          	jal	ra,15f40 <_sbrk_r>
   12846:	0089a703          	lw	a4,8(s3)
   1284a:	46bd                	li	a3,15
   1284c:	40e507b3          	sub	a5,a0,a4
   12850:	f8f6dce3          	bge	a3,a5,127e8 <_malloc_trim_r+0x4a>
   12854:	1c41a683          	lw	a3,452(gp) # 1f9d4 <__malloc_sbrk_base>
   12858:	0017e793          	ori	a5,a5,1
   1285c:	c35c                	sw	a5,4(a4)
   1285e:	8d15                	sub	a0,a0,a3
   12860:	20a1a023          	sw	a0,512(gp) # 1fa10 <__malloc_current_mallinfo>
   12864:	b751                	j	127e8 <_malloc_trim_r+0x4a>

00012866 <_free_r>:
   12866:	cde9                	beqz	a1,12940 <_free_r+0xda>
   12868:	1141                	addi	sp,sp,-16
   1286a:	c422                	sw	s0,8(sp)
   1286c:	c226                	sw	s1,4(sp)
   1286e:	842e                	mv	s0,a1
   12870:	84aa                	mv	s1,a0
   12872:	c606                	sw	ra,12(sp)
   12874:	28b020ef          	jal	ra,152fe <__malloc_lock>
   12878:	ffc42803          	lw	a6,-4(s0)
   1287c:	ff840713          	addi	a4,s0,-8
   12880:	ffe87793          	andi	a5,a6,-2
   12884:	00f70633          	add	a2,a4,a5
   12888:	c2818593          	addi	a1,gp,-984 # 1f438 <__malloc_av_>
   1288c:	4254                	lw	a3,4(a2)
   1288e:	4588                	lw	a0,8(a1)
   12890:	9af1                	andi	a3,a3,-4
   12892:	12c50c63          	beq	a0,a2,129ca <_free_r+0x164>
   12896:	c254                	sw	a3,4(a2)
   12898:	00187813          	andi	a6,a6,1
   1289c:	00d60533          	add	a0,a2,a3
   128a0:	06081b63          	bnez	a6,12916 <_free_r+0xb0>
   128a4:	ff842303          	lw	t1,-8(s0)
   128a8:	00452803          	lw	a6,4(a0)
   128ac:	40670733          	sub	a4,a4,t1
   128b0:	00872883          	lw	a7,8(a4)
   128b4:	c3018513          	addi	a0,gp,-976 # 1f440 <__malloc_av_+0x8>
   128b8:	979a                	add	a5,a5,t1
   128ba:	00187813          	andi	a6,a6,1
   128be:	0ea88363          	beq	a7,a0,129a4 <_free_r+0x13e>
   128c2:	00c72303          	lw	t1,12(a4)
   128c6:	0068a623          	sw	t1,12(a7)
   128ca:	01132423          	sw	a7,8(t1)
   128ce:	14080763          	beqz	a6,12a1c <_free_r+0x1b6>
   128d2:	0017e693          	ori	a3,a5,1
   128d6:	c354                	sw	a3,4(a4)
   128d8:	c21c                	sw	a5,0(a2)
   128da:	1ff00693          	li	a3,511
   128de:	06f6eb63          	bltu	a3,a5,12954 <_free_r+0xee>
   128e2:	ff87f693          	andi	a3,a5,-8
   128e6:	06a1                	addi	a3,a3,8
   128e8:	41c8                	lw	a0,4(a1)
   128ea:	96ae                	add	a3,a3,a1
   128ec:	4290                	lw	a2,0(a3)
   128ee:	0057d813          	srli	a6,a5,0x5
   128f2:	4785                	li	a5,1
   128f4:	010797b3          	sll	a5,a5,a6
   128f8:	8fc9                	or	a5,a5,a0
   128fa:	ff868513          	addi	a0,a3,-8 # ff8 <main-0xf07c>
   128fe:	c748                	sw	a0,12(a4)
   12900:	c710                	sw	a2,8(a4)
   12902:	c1dc                	sw	a5,4(a1)
   12904:	c298                	sw	a4,0(a3)
   12906:	c658                	sw	a4,12(a2)
   12908:	4422                	lw	s0,8(sp)
   1290a:	40b2                	lw	ra,12(sp)
   1290c:	8526                	mv	a0,s1
   1290e:	4492                	lw	s1,4(sp)
   12910:	0141                	addi	sp,sp,16
   12912:	1ef0206f          	j	15300 <__malloc_unlock>
   12916:	4148                	lw	a0,4(a0)
   12918:	8905                	andi	a0,a0,1
   1291a:	e505                	bnez	a0,12942 <_free_r+0xdc>
   1291c:	97b6                	add	a5,a5,a3
   1291e:	c3018513          	addi	a0,gp,-976 # 1f440 <__malloc_av_+0x8>
   12922:	4614                	lw	a3,8(a2)
   12924:	0017e893          	ori	a7,a5,1
   12928:	00f70833          	add	a6,a4,a5
   1292c:	10a68063          	beq	a3,a0,12a2c <_free_r+0x1c6>
   12930:	4650                	lw	a2,12(a2)
   12932:	c6d0                	sw	a2,12(a3)
   12934:	c614                	sw	a3,8(a2)
   12936:	01172223          	sw	a7,4(a4)
   1293a:	00f82023          	sw	a5,0(a6)
   1293e:	bf71                	j	128da <_free_r+0x74>
   12940:	8082                	ret
   12942:	0017e693          	ori	a3,a5,1
   12946:	fed42e23          	sw	a3,-4(s0)
   1294a:	c21c                	sw	a5,0(a2)
   1294c:	1ff00693          	li	a3,511
   12950:	f8f6f9e3          	bgeu	a3,a5,128e2 <_free_r+0x7c>
   12954:	0097d693          	srli	a3,a5,0x9
   12958:	4611                	li	a2,4
   1295a:	0ad66263          	bltu	a2,a3,129fe <_free_r+0x198>
   1295e:	0067d693          	srli	a3,a5,0x6
   12962:	03968813          	addi	a6,a3,57
   12966:	03868613          	addi	a2,a3,56
   1296a:	080e                	slli	a6,a6,0x3
   1296c:	982e                	add	a6,a6,a1
   1296e:	00082683          	lw	a3,0(a6)
   12972:	1861                	addi	a6,a6,-8
   12974:	0cd80563          	beq	a6,a3,12a3e <_free_r+0x1d8>
   12978:	42d0                	lw	a2,4(a3)
   1297a:	9a71                	andi	a2,a2,-4
   1297c:	00c7f563          	bgeu	a5,a2,12986 <_free_r+0x120>
   12980:	4694                	lw	a3,8(a3)
   12982:	fed81be3          	bne	a6,a3,12978 <_free_r+0x112>
   12986:	00c6a803          	lw	a6,12(a3)
   1298a:	01072623          	sw	a6,12(a4)
   1298e:	c714                	sw	a3,8(a4)
   12990:	4422                	lw	s0,8(sp)
   12992:	40b2                	lw	ra,12(sp)
   12994:	00e82423          	sw	a4,8(a6)
   12998:	8526                	mv	a0,s1
   1299a:	4492                	lw	s1,4(sp)
   1299c:	c6d8                	sw	a4,12(a3)
   1299e:	0141                	addi	sp,sp,16
   129a0:	1610206f          	j	15300 <__malloc_unlock>
   129a4:	0e081263          	bnez	a6,12a88 <_free_r+0x222>
   129a8:	464c                	lw	a1,12(a2)
   129aa:	4610                	lw	a2,8(a2)
   129ac:	96be                	add	a3,a3,a5
   129ae:	4422                	lw	s0,8(sp)
   129b0:	c64c                	sw	a1,12(a2)
   129b2:	c590                	sw	a2,8(a1)
   129b4:	0016e793          	ori	a5,a3,1
   129b8:	40b2                	lw	ra,12(sp)
   129ba:	c35c                	sw	a5,4(a4)
   129bc:	8526                	mv	a0,s1
   129be:	9736                	add	a4,a4,a3
   129c0:	4492                	lw	s1,4(sp)
   129c2:	c314                	sw	a3,0(a4)
   129c4:	0141                	addi	sp,sp,16
   129c6:	13b0206f          	j	15300 <__malloc_unlock>
   129ca:	00187813          	andi	a6,a6,1
   129ce:	96be                	add	a3,a3,a5
   129d0:	00081a63          	bnez	a6,129e4 <_free_r+0x17e>
   129d4:	ff842503          	lw	a0,-8(s0)
   129d8:	8f09                	sub	a4,a4,a0
   129da:	475c                	lw	a5,12(a4)
   129dc:	4710                	lw	a2,8(a4)
   129de:	96aa                	add	a3,a3,a0
   129e0:	c65c                	sw	a5,12(a2)
   129e2:	c790                	sw	a2,8(a5)
   129e4:	0016e613          	ori	a2,a3,1
   129e8:	1c81a783          	lw	a5,456(gp) # 1f9d8 <__malloc_trim_threshold>
   129ec:	c350                	sw	a2,4(a4)
   129ee:	c598                	sw	a4,8(a1)
   129f0:	f0f6ece3          	bltu	a3,a5,12908 <_free_r+0xa2>
   129f4:	1d41a583          	lw	a1,468(gp) # 1f9e4 <__malloc_top_pad>
   129f8:	8526                	mv	a0,s1
   129fa:	3355                	jal	1279e <_malloc_trim_r>
   129fc:	b731                	j	12908 <_free_r+0xa2>
   129fe:	4651                	li	a2,20
   12a00:	02d67063          	bgeu	a2,a3,12a20 <_free_r+0x1ba>
   12a04:	05400613          	li	a2,84
   12a08:	04d66363          	bltu	a2,a3,12a4e <_free_r+0x1e8>
   12a0c:	00c7d693          	srli	a3,a5,0xc
   12a10:	06f68813          	addi	a6,a3,111
   12a14:	06e68613          	addi	a2,a3,110
   12a18:	080e                	slli	a6,a6,0x3
   12a1a:	bf89                	j	1296c <_free_r+0x106>
   12a1c:	97b6                	add	a5,a5,a3
   12a1e:	b711                	j	12922 <_free_r+0xbc>
   12a20:	05c68813          	addi	a6,a3,92
   12a24:	05b68613          	addi	a2,a3,91
   12a28:	080e                	slli	a6,a6,0x3
   12a2a:	b789                	j	1296c <_free_r+0x106>
   12a2c:	c9d8                	sw	a4,20(a1)
   12a2e:	c998                	sw	a4,16(a1)
   12a30:	c748                	sw	a0,12(a4)
   12a32:	c708                	sw	a0,8(a4)
   12a34:	01172223          	sw	a7,4(a4)
   12a38:	00f82023          	sw	a5,0(a6)
   12a3c:	b5f1                	j	12908 <_free_r+0xa2>
   12a3e:	41c8                	lw	a0,4(a1)
   12a40:	8609                	srai	a2,a2,0x2
   12a42:	4785                	li	a5,1
   12a44:	00c797b3          	sll	a5,a5,a2
   12a48:	8fc9                	or	a5,a5,a0
   12a4a:	c1dc                	sw	a5,4(a1)
   12a4c:	bf3d                	j	1298a <_free_r+0x124>
   12a4e:	15400613          	li	a2,340
   12a52:	00d66a63          	bltu	a2,a3,12a66 <_free_r+0x200>
   12a56:	00f7d693          	srli	a3,a5,0xf
   12a5a:	07868813          	addi	a6,a3,120
   12a5e:	07768613          	addi	a2,a3,119
   12a62:	080e                	slli	a6,a6,0x3
   12a64:	b721                	j	1296c <_free_r+0x106>
   12a66:	55400613          	li	a2,1364
   12a6a:	00d66a63          	bltu	a2,a3,12a7e <_free_r+0x218>
   12a6e:	0127d693          	srli	a3,a5,0x12
   12a72:	07d68813          	addi	a6,a3,125
   12a76:	07c68613          	addi	a2,a3,124
   12a7a:	080e                	slli	a6,a6,0x3
   12a7c:	bdc5                	j	1296c <_free_r+0x106>
   12a7e:	3f800813          	li	a6,1016
   12a82:	07e00613          	li	a2,126
   12a86:	b5dd                	j	1296c <_free_r+0x106>
   12a88:	0017e693          	ori	a3,a5,1
   12a8c:	c354                	sw	a3,4(a4)
   12a8e:	c21c                	sw	a5,0(a2)
   12a90:	bda5                	j	12908 <_free_r+0xa2>

00012a92 <_fwalk>:
   12a92:	1101                	addi	sp,sp,-32
   12a94:	c84a                	sw	s2,16(sp)
   12a96:	c64e                	sw	s3,12(sp)
   12a98:	c452                	sw	s4,8(sp)
   12a9a:	c256                	sw	s5,4(sp)
   12a9c:	c05a                	sw	s6,0(sp)
   12a9e:	ce06                	sw	ra,28(sp)
   12aa0:	cc22                	sw	s0,24(sp)
   12aa2:	ca26                	sw	s1,20(sp)
   12aa4:	8b2e                	mv	s6,a1
   12aa6:	2e050a93          	addi	s5,a0,736
   12aaa:	4a01                	li	s4,0
   12aac:	4985                	li	s3,1
   12aae:	597d                	li	s2,-1
   12ab0:	004aa483          	lw	s1,4(s5)
   12ab4:	008aa403          	lw	s0,8(s5)
   12ab8:	14fd                	addi	s1,s1,-1
   12aba:	0204c363          	bltz	s1,12ae0 <_fwalk+0x4e>
   12abe:	00c45783          	lhu	a5,12(s0)
   12ac2:	14fd                	addi	s1,s1,-1
   12ac4:	00f9fa63          	bgeu	s3,a5,12ad8 <_fwalk+0x46>
   12ac8:	00e41783          	lh	a5,14(s0)
   12acc:	8522                	mv	a0,s0
   12ace:	01278563          	beq	a5,s2,12ad8 <_fwalk+0x46>
   12ad2:	9b02                	jalr	s6
   12ad4:	00aa6a33          	or	s4,s4,a0
   12ad8:	06840413          	addi	s0,s0,104
   12adc:	ff2491e3          	bne	s1,s2,12abe <_fwalk+0x2c>
   12ae0:	000aaa83          	lw	s5,0(s5)
   12ae4:	fc0a96e3          	bnez	s5,12ab0 <_fwalk+0x1e>
   12ae8:	40f2                	lw	ra,28(sp)
   12aea:	4462                	lw	s0,24(sp)
   12aec:	44d2                	lw	s1,20(sp)
   12aee:	4942                	lw	s2,16(sp)
   12af0:	49b2                	lw	s3,12(sp)
   12af2:	4a92                	lw	s5,4(sp)
   12af4:	4b02                	lw	s6,0(sp)
   12af6:	8552                	mv	a0,s4
   12af8:	4a22                	lw	s4,8(sp)
   12afa:	6105                	addi	sp,sp,32
   12afc:	8082                	ret

00012afe <_fwalk_reent>:
   12afe:	7179                	addi	sp,sp,-48
   12b00:	d04a                	sw	s2,32(sp)
   12b02:	ce4e                	sw	s3,28(sp)
   12b04:	cc52                	sw	s4,24(sp)
   12b06:	ca56                	sw	s5,20(sp)
   12b08:	c85a                	sw	s6,16(sp)
   12b0a:	c65e                	sw	s7,12(sp)
   12b0c:	d606                	sw	ra,44(sp)
   12b0e:	d422                	sw	s0,40(sp)
   12b10:	d226                	sw	s1,36(sp)
   12b12:	8aaa                	mv	s5,a0
   12b14:	8bae                	mv	s7,a1
   12b16:	2e050b13          	addi	s6,a0,736
   12b1a:	4a01                	li	s4,0
   12b1c:	4985                	li	s3,1
   12b1e:	597d                	li	s2,-1
   12b20:	004b2483          	lw	s1,4(s6)
   12b24:	008b2403          	lw	s0,8(s6)
   12b28:	14fd                	addi	s1,s1,-1
   12b2a:	0204c463          	bltz	s1,12b52 <_fwalk_reent+0x54>
   12b2e:	00c45783          	lhu	a5,12(s0)
   12b32:	14fd                	addi	s1,s1,-1
   12b34:	00f9fb63          	bgeu	s3,a5,12b4a <_fwalk_reent+0x4c>
   12b38:	00e41783          	lh	a5,14(s0)
   12b3c:	85a2                	mv	a1,s0
   12b3e:	8556                	mv	a0,s5
   12b40:	01278563          	beq	a5,s2,12b4a <_fwalk_reent+0x4c>
   12b44:	9b82                	jalr	s7
   12b46:	00aa6a33          	or	s4,s4,a0
   12b4a:	06840413          	addi	s0,s0,104
   12b4e:	ff2490e3          	bne	s1,s2,12b2e <_fwalk_reent+0x30>
   12b52:	000b2b03          	lw	s6,0(s6)
   12b56:	fc0b15e3          	bnez	s6,12b20 <_fwalk_reent+0x22>
   12b5a:	50b2                	lw	ra,44(sp)
   12b5c:	5422                	lw	s0,40(sp)
   12b5e:	5492                	lw	s1,36(sp)
   12b60:	5902                	lw	s2,32(sp)
   12b62:	49f2                	lw	s3,28(sp)
   12b64:	4ad2                	lw	s5,20(sp)
   12b66:	4b42                	lw	s6,16(sp)
   12b68:	4bb2                	lw	s7,12(sp)
   12b6a:	8552                	mv	a0,s4
   12b6c:	4a62                	lw	s4,24(sp)
   12b6e:	6145                	addi	sp,sp,48
   12b70:	8082                	ret

00012b72 <eshdn1>:
   12b72:	00450693          	addi	a3,a0,4
   12b76:	4781                	li	a5,0
   12b78:	0569                	addi	a0,a0,26
   12b7a:	7861                	lui	a6,0xffff8
   12b7c:	a809                	j	12b8e <eshdn1+0x1c>
   12b7e:	0786                	slli	a5,a5,0x1
   12b80:	00e69023          	sh	a4,0(a3)
   12b84:	07c2                	slli	a5,a5,0x10
   12b86:	0689                	addi	a3,a3,2
   12b88:	83c1                	srli	a5,a5,0x10
   12b8a:	02d50763          	beq	a0,a3,12bb8 <eshdn1+0x46>
   12b8e:	0006d703          	lhu	a4,0(a3)
   12b92:	00177613          	andi	a2,a4,1
   12b96:	c219                	beqz	a2,12b9c <eshdn1+0x2a>
   12b98:	0017e793          	ori	a5,a5,1
   12b9c:	8305                	srli	a4,a4,0x1
   12b9e:	0027f613          	andi	a2,a5,2
   12ba2:	010765b3          	or	a1,a4,a6
   12ba6:	de61                	beqz	a2,12b7e <eshdn1+0xc>
   12ba8:	0786                	slli	a5,a5,0x1
   12baa:	00b69023          	sh	a1,0(a3)
   12bae:	07c2                	slli	a5,a5,0x10
   12bb0:	0689                	addi	a3,a3,2
   12bb2:	83c1                	srli	a5,a5,0x10
   12bb4:	fcd51de3          	bne	a0,a3,12b8e <eshdn1+0x1c>
   12bb8:	8082                	ret

00012bba <eshup1>:
   12bba:	01850693          	addi	a3,a0,24
   12bbe:	4701                	li	a4,0
   12bc0:	0509                	addi	a0,a0,2
   12bc2:	a809                	j	12bd4 <eshup1+0x1a>
   12bc4:	0706                	slli	a4,a4,0x1
   12bc6:	00f69023          	sh	a5,0(a3)
   12bca:	0742                	slli	a4,a4,0x10
   12bcc:	16f9                	addi	a3,a3,-2
   12bce:	8341                	srli	a4,a4,0x10
   12bd0:	02d50b63          	beq	a0,a3,12c06 <eshup1+0x4c>
   12bd4:	0006d783          	lhu	a5,0(a3)
   12bd8:	01079613          	slli	a2,a5,0x10
   12bdc:	8641                	srai	a2,a2,0x10
   12bde:	0786                	slli	a5,a5,0x1
   12be0:	00065463          	bgez	a2,12be8 <eshup1+0x2e>
   12be4:	00176713          	ori	a4,a4,1
   12be8:	07c2                	slli	a5,a5,0x10
   12bea:	83c1                	srli	a5,a5,0x10
   12bec:	00277613          	andi	a2,a4,2
   12bf0:	0017e593          	ori	a1,a5,1
   12bf4:	da61                	beqz	a2,12bc4 <eshup1+0xa>
   12bf6:	0706                	slli	a4,a4,0x1
   12bf8:	00b69023          	sh	a1,0(a3)
   12bfc:	0742                	slli	a4,a4,0x10
   12bfe:	16f9                	addi	a3,a3,-2
   12c00:	8341                	srli	a4,a4,0x10
   12c02:	fcd519e3          	bne	a0,a3,12bd4 <eshup1+0x1a>
   12c06:	8082                	ret

00012c08 <m16m>:
   12c08:	1101                	addi	sp,sp,-32
   12c0a:	6e41                	lui	t3,0x10
   12c0c:	00011d23          	sh	zero,26(sp)
   12c10:	00011e23          	sh	zero,28(sp)
   12c14:	05e1                	addi	a1,a1,24
   12c16:	087c                	addi	a5,sp,28
   12c18:	00810813          	addi	a6,sp,8
   12c1c:	1e7d                	addi	t3,t3,-1
   12c1e:	0005d703          	lhu	a4,0(a1)
   12c22:	17f9                	addi	a5,a5,-2
   12c24:	15f9                	addi	a1,a1,-2
   12c26:	c705                	beqz	a4,12c4e <m16m+0x46>
   12c28:	02a70733          	mul	a4,a4,a0
   12c2c:	0027d883          	lhu	a7,2(a5)
   12c30:	0007d303          	lhu	t1,0(a5)
   12c34:	01c776b3          	and	a3,a4,t3
   12c38:	96c6                	add	a3,a3,a7
   12c3a:	8341                	srli	a4,a4,0x10
   12c3c:	0106d893          	srli	a7,a3,0x10
   12c40:	971a                	add	a4,a4,t1
   12c42:	9746                	add	a4,a4,a7
   12c44:	00e79023          	sh	a4,0(a5)
   12c48:	00d79123          	sh	a3,2(a5)
   12c4c:	8341                	srli	a4,a4,0x10
   12c4e:	fee79f23          	sh	a4,-2(a5)
   12c52:	fd0796e3          	bne	a5,a6,12c1e <m16m+0x16>
   12c56:	0611                	addi	a2,a2,4
   12c58:	01e10693          	addi	a3,sp,30
   12c5c:	0007d703          	lhu	a4,0(a5)
   12c60:	0789                	addi	a5,a5,2
   12c62:	0609                	addi	a2,a2,2
   12c64:	fee61f23          	sh	a4,-2(a2)
   12c68:	fed79ae3          	bne	a5,a3,12c5c <m16m+0x54>
   12c6c:	6105                	addi	sp,sp,32
   12c6e:	8082                	ret

00012c70 <emovo.constprop.0>:
   12c70:	00055703          	lhu	a4,0(a0)
   12c74:	00255783          	lhu	a5,2(a0)
   12c78:	c319                	beqz	a4,12c7e <emovo.constprop.0+0xe>
   12c7a:	6721                	lui	a4,0x8
   12c7c:	8fd9                	or	a5,a5,a4
   12c7e:	00f59923          	sh	a5,18(a1)
   12c82:	00255703          	lhu	a4,2(a0)
   12c86:	67a1                	lui	a5,0x8
   12c88:	17fd                	addi	a5,a5,-1
   12c8a:	00f70f63          	beq	a4,a5,12ca8 <emovo.constprop.0+0x38>
   12c8e:	00650793          	addi	a5,a0,6
   12c92:	05c1                	addi	a1,a1,16
   12c94:	0561                	addi	a0,a0,24
   12c96:	0007d703          	lhu	a4,0(a5) # 8000 <main-0x8074>
   12c9a:	0789                	addi	a5,a5,2
   12c9c:	15f9                	addi	a1,a1,-2
   12c9e:	00e59123          	sh	a4,2(a1)
   12ca2:	fea79ae3          	bne	a5,a0,12c96 <emovo.constprop.0+0x26>
   12ca6:	8082                	ret
   12ca8:	00650793          	addi	a5,a0,6
   12cac:	0569                	addi	a0,a0,26
   12cae:	0007d703          	lhu	a4,0(a5)
   12cb2:	0789                	addi	a5,a5,2
   12cb4:	e31d                	bnez	a4,12cda <emovo.constprop.0+0x6a>
   12cb6:	fea79ce3          	bne	a5,a0,12cae <emovo.constprop.0+0x3e>
   12cba:	01258713          	addi	a4,a1,18
   12cbe:	87ae                	mv	a5,a1
   12cc0:	0789                	addi	a5,a5,2
   12cc2:	fe079f23          	sh	zero,-2(a5)
   12cc6:	fef71de3          	bne	a4,a5,12cc0 <emovo.constprop.0+0x50>
   12cca:	0125d783          	lhu	a5,18(a1)
   12cce:	6721                	lui	a4,0x8
   12cd0:	177d                	addi	a4,a4,-1
   12cd2:	8fd9                	or	a5,a5,a4
   12cd4:	00f59923          	sh	a5,18(a1)
   12cd8:	8082                	ret
   12cda:	01058713          	addi	a4,a1,16
   12cde:	87ae                	mv	a5,a1
   12ce0:	0789                	addi	a5,a5,2
   12ce2:	fe079f23          	sh	zero,-2(a5)
   12ce6:	fef71de3          	bne	a4,a5,12ce0 <emovo.constprop.0+0x70>
   12cea:	77f1                	lui	a5,0xffffc
   12cec:	00f59823          	sh	a5,16(a1)
   12cf0:	77e1                	lui	a5,0xffff8
   12cf2:	fff7c793          	not	a5,a5
   12cf6:	00f59923          	sh	a5,18(a1)
   12cfa:	8082                	ret

00012cfc <enormlz>:
   12cfc:	00455783          	lhu	a5,4(a0)
   12d00:	1141                	addi	sp,sp,-16
   12d02:	c226                	sw	s1,4(sp)
   12d04:	c606                	sw	ra,12(sp)
   12d06:	c422                	sw	s0,8(sp)
   12d08:	c04a                	sw	s2,0(sp)
   12d0a:	84aa                	mv	s1,a0
   12d0c:	e3c5                	bnez	a5,12dac <enormlz+0xb0>
   12d0e:	00655703          	lhu	a4,6(a0)
   12d12:	4401                	li	s0,0
   12d14:	01071793          	slli	a5,a4,0x10
   12d18:	87c1                	srai	a5,a5,0x10
   12d1a:	0807c263          	bltz	a5,12d9e <enormlz+0xa2>
   12d1e:	01a50693          	addi	a3,a0,26
   12d22:	0a000613          	li	a2,160
   12d26:	e31d                	bnez	a4,12d4c <enormlz+0x50>
   12d28:	00648793          	addi	a5,s1,6
   12d2c:	a019                	j	12d32 <enormlz+0x36>
   12d2e:	0007d703          	lhu	a4,0(a5) # ffff8000 <__BSS_END__+0xfffd85c8>
   12d32:	0789                	addi	a5,a5,2
   12d34:	fee79e23          	sh	a4,-4(a5)
   12d38:	fed79be3          	bne	a5,a3,12d2e <enormlz+0x32>
   12d3c:	00049c23          	sh	zero,24(s1)
   12d40:	0441                	addi	s0,s0,16
   12d42:	04c40e63          	beq	s0,a2,12d9e <enormlz+0xa2>
   12d46:	0064d703          	lhu	a4,6(s1)
   12d4a:	df79                	beqz	a4,12d28 <enormlz+0x2c>
   12d4c:	f0077793          	andi	a5,a4,-256
   12d50:	eb8d                	bnez	a5,12d82 <enormlz+0x86>
   12d52:	01848513          	addi	a0,s1,24
   12d56:	00248593          	addi	a1,s1,2
   12d5a:	4781                	li	a5,0
   12d5c:	872a                	mv	a4,a0
   12d5e:	00075683          	lhu	a3,0(a4) # 8000 <main-0x8074>
   12d62:	1779                	addi	a4,a4,-2
   12d64:	00869613          	slli	a2,a3,0x8
   12d68:	8fd1                	or	a5,a5,a2
   12d6a:	00f71123          	sh	a5,2(a4)
   12d6e:	0086d793          	srli	a5,a3,0x8
   12d72:	feb716e3          	bne	a4,a1,12d5e <enormlz+0x62>
   12d76:	0064d703          	lhu	a4,6(s1)
   12d7a:	0421                	addi	s0,s0,8
   12d7c:	f0077793          	andi	a5,a4,-256
   12d80:	dfe9                	beqz	a5,12d5a <enormlz+0x5e>
   12d82:	0a000913          	li	s2,160
   12d86:	a039                	j	12d94 <enormlz+0x98>
   12d88:	0405                	addi	s0,s0,1
   12d8a:	3d05                	jal	12bba <eshup1>
   12d8c:	00894963          	blt	s2,s0,12d9e <enormlz+0xa2>
   12d90:	0064d703          	lhu	a4,6(s1)
   12d94:	0742                	slli	a4,a4,0x10
   12d96:	8741                	srai	a4,a4,0x10
   12d98:	8526                	mv	a0,s1
   12d9a:	fe0757e3          	bgez	a4,12d88 <enormlz+0x8c>
   12d9e:	40b2                	lw	ra,12(sp)
   12da0:	8522                	mv	a0,s0
   12da2:	4422                	lw	s0,8(sp)
   12da4:	4492                	lw	s1,4(sp)
   12da6:	4902                	lw	s2,0(sp)
   12da8:	0141                	addi	sp,sp,16
   12daa:	8082                	ret
   12dac:	f007f713          	andi	a4,a5,-256
   12db0:	4401                	li	s0,0
   12db2:	e31d                	bnez	a4,12dd8 <enormlz+0xdc>
   12db4:	f6f00913          	li	s2,-145
   12db8:	a039                	j	12dc6 <enormlz+0xca>
   12dba:	147d                	addi	s0,s0,-1
   12dbc:	3b5d                	jal	12b72 <eshdn1>
   12dbe:	ff2400e3          	beq	s0,s2,12d9e <enormlz+0xa2>
   12dc2:	0044d783          	lhu	a5,4(s1)
   12dc6:	8526                	mv	a0,s1
   12dc8:	fbed                	bnez	a5,12dba <enormlz+0xbe>
   12dca:	40b2                	lw	ra,12(sp)
   12dcc:	8522                	mv	a0,s0
   12dce:	4422                	lw	s0,8(sp)
   12dd0:	4492                	lw	s1,4(sp)
   12dd2:	4902                	lw	s2,0(sp)
   12dd4:	0141                	addi	sp,sp,16
   12dd6:	8082                	ret
   12dd8:	00450693          	addi	a3,a0,4
   12ddc:	01a50593          	addi	a1,a0,26
   12de0:	4701                	li	a4,0
   12de2:	a019                	j	12de8 <enormlz+0xec>
   12de4:	0006d783          	lhu	a5,0(a3)
   12de8:	0087d613          	srli	a2,a5,0x8
   12dec:	8f51                	or	a4,a4,a2
   12dee:	07a2                	slli	a5,a5,0x8
   12df0:	00e69023          	sh	a4,0(a3)
   12df4:	01079713          	slli	a4,a5,0x10
   12df8:	0689                	addi	a3,a3,2
   12dfa:	8341                	srli	a4,a4,0x10
   12dfc:	fed594e3          	bne	a1,a3,12de4 <enormlz+0xe8>
   12e00:	0044d783          	lhu	a5,4(s1)
   12e04:	5461                	li	s0,-8
   12e06:	b77d                	j	12db4 <enormlz+0xb8>

00012e08 <eshift.part.0>:
   12e08:	1101                	addi	sp,sp,-32
   12e0a:	cc22                	sw	s0,24(sp)
   12e0c:	ca26                	sw	s1,20(sp)
   12e0e:	ce06                	sw	ra,28(sp)
   12e10:	c84a                	sw	s2,16(sp)
   12e12:	c64e                	sw	s3,12(sp)
   12e14:	84ae                	mv	s1,a1
   12e16:	842a                	mv	s0,a0
   12e18:	0605ca63          	bltz	a1,12e8c <eshift.part.0+0x84>
   12e1c:	47bd                	li	a5,15
   12e1e:	862e                	mv	a2,a1
   12e20:	0511                	addi	a0,a0,4
   12e22:	01840693          	addi	a3,s0,24
   12e26:	45bd                	li	a1,15
   12e28:	0297d063          	bge	a5,s1,12e48 <eshift.part.0+0x40>
   12e2c:	87aa                	mv	a5,a0
   12e2e:	0027d703          	lhu	a4,2(a5)
   12e32:	0789                	addi	a5,a5,2
   12e34:	fee79f23          	sh	a4,-2(a5)
   12e38:	fef69be3          	bne	a3,a5,12e2e <eshift.part.0+0x26>
   12e3c:	00041c23          	sh	zero,24(s0)
   12e40:	1641                	addi	a2,a2,-16
   12e42:	fec5c5e3          	blt	a1,a2,12e2c <eshift.part.0+0x24>
   12e46:	88bd                	andi	s1,s1,15
   12e48:	479d                	li	a5,7
   12e4a:	0297d463          	bge	a5,s1,12e72 <eshift.part.0+0x6a>
   12e4e:	01840713          	addi	a4,s0,24
   12e52:	00240593          	addi	a1,s0,2
   12e56:	4781                	li	a5,0
   12e58:	00075683          	lhu	a3,0(a4)
   12e5c:	1779                	addi	a4,a4,-2
   12e5e:	00869613          	slli	a2,a3,0x8
   12e62:	8fd1                	or	a5,a5,a2
   12e64:	00f71123          	sh	a5,2(a4)
   12e68:	0086d793          	srli	a5,a3,0x8
   12e6c:	fee596e3          	bne	a1,a4,12e58 <eshift.part.0+0x50>
   12e70:	14e1                	addi	s1,s1,-8
   12e72:	c489                	beqz	s1,12e7c <eshift.part.0+0x74>
   12e74:	14fd                	addi	s1,s1,-1
   12e76:	8522                	mv	a0,s0
   12e78:	3389                	jal	12bba <eshup1>
   12e7a:	fced                	bnez	s1,12e74 <eshift.part.0+0x6c>
   12e7c:	40f2                	lw	ra,28(sp)
   12e7e:	4462                	lw	s0,24(sp)
   12e80:	44d2                	lw	s1,20(sp)
   12e82:	4942                	lw	s2,16(sp)
   12e84:	49b2                	lw	s3,12(sp)
   12e86:	4501                	li	a0,0
   12e88:	6105                	addi	sp,sp,32
   12e8a:	8082                	ret
   12e8c:	57c5                	li	a5,-15
   12e8e:	40b00933          	neg	s2,a1
   12e92:	06f5d963          	bge	a1,a5,12f04 <eshift.part.0+0xfc>
   12e96:	01850593          	addi	a1,a0,24
   12e9a:	4981                	li	s3,0
   12e9c:	00450693          	addi	a3,a0,4
   12ea0:	463d                	li	a2,15
   12ea2:	01845703          	lhu	a4,24(s0)
   12ea6:	87ae                	mv	a5,a1
   12ea8:	00e9e9b3          	or	s3,s3,a4
   12eac:	ffe7d703          	lhu	a4,-2(a5)
   12eb0:	17f9                	addi	a5,a5,-2
   12eb2:	00e79123          	sh	a4,2(a5)
   12eb6:	fed79be3          	bne	a5,a3,12eac <eshift.part.0+0xa4>
   12eba:	00041223          	sh	zero,4(s0)
   12ebe:	1941                	addi	s2,s2,-16
   12ec0:	ff2641e3          	blt	a2,s2,12ea2 <eshift.part.0+0x9a>
   12ec4:	5941                	li	s2,-16
   12ec6:	5745                	li	a4,-15
   12ec8:	40990933          	sub	s2,s2,s1
   12ecc:	4781                	li	a5,0
   12ece:	06e4c863          	blt	s1,a4,12f3e <eshift.part.0+0x136>
   12ed2:	993e                	add	s2,s2,a5
   12ed4:	479d                	li	a5,7
   12ed6:	0327cd63          	blt	a5,s2,12f10 <eshift.part.0+0x108>
   12eda:	00090c63          	beqz	s2,12ef2 <eshift.part.0+0xea>
   12ede:	01845783          	lhu	a5,24(s0)
   12ee2:	197d                	addi	s2,s2,-1
   12ee4:	8522                	mv	a0,s0
   12ee6:	8b85                	andi	a5,a5,1
   12ee8:	00f9e9b3          	or	s3,s3,a5
   12eec:	3159                	jal	12b72 <eshdn1>
   12eee:	fe0918e3          	bnez	s2,12ede <eshift.part.0+0xd6>
   12ef2:	40f2                	lw	ra,28(sp)
   12ef4:	4462                	lw	s0,24(sp)
   12ef6:	44d2                	lw	s1,20(sp)
   12ef8:	4942                	lw	s2,16(sp)
   12efa:	01303533          	snez	a0,s3
   12efe:	49b2                	lw	s3,12(sp)
   12f00:	6105                	addi	sp,sp,32
   12f02:	8082                	ret
   12f04:	57e5                	li	a5,-7
   12f06:	4981                	li	s3,0
   12f08:	00450693          	addi	a3,a0,4
   12f0c:	fcf5d9e3          	bge	a1,a5,12ede <eshift.part.0+0xd6>
   12f10:	01844783          	lbu	a5,24(s0)
   12f14:	01a40593          	addi	a1,s0,26
   12f18:	00f9e9b3          	or	s3,s3,a5
   12f1c:	4781                	li	a5,0
   12f1e:	0006d703          	lhu	a4,0(a3)
   12f22:	0689                	addi	a3,a3,2
   12f24:	00875613          	srli	a2,a4,0x8
   12f28:	8fd1                	or	a5,a5,a2
   12f2a:	0722                	slli	a4,a4,0x8
   12f2c:	fef69f23          	sh	a5,-2(a3)
   12f30:	01071793          	slli	a5,a4,0x10
   12f34:	83c1                	srli	a5,a5,0x10
   12f36:	feb694e3          	bne	a3,a1,12f1e <eshift.part.0+0x116>
   12f3a:	1961                	addi	s2,s2,-8
   12f3c:	bf79                	j	12eda <eshift.part.0+0xd2>
   12f3e:	ff097793          	andi	a5,s2,-16
   12f42:	40f007b3          	neg	a5,a5
   12f46:	993e                	add	s2,s2,a5
   12f48:	479d                	li	a5,7
   12f4a:	f927d8e3          	bge	a5,s2,12eda <eshift.part.0+0xd2>
   12f4e:	b7c9                	j	12f10 <eshift.part.0+0x108>

00012f50 <emovi>:
   12f50:	01255783          	lhu	a5,18(a0)
   12f54:	6621                	lui	a2,0x8
   12f56:	167d                	addi	a2,a2,-1
   12f58:	83bd                	srli	a5,a5,0xf
   12f5a:	40f007b3          	neg	a5,a5
   12f5e:	00f59023          	sh	a5,0(a1)
   12f62:	01255683          	lhu	a3,18(a0)
   12f66:	01050793          	addi	a5,a0,16
   12f6a:	00458713          	addi	a4,a1,4
   12f6e:	8ef1                	and	a3,a3,a2
   12f70:	00d59123          	sh	a3,2(a1)
   12f74:	02c68263          	beq	a3,a2,12f98 <emovi+0x48>
   12f78:	00658713          	addi	a4,a1,6
   12f7c:	00059223          	sh	zero,4(a1)
   12f80:	1579                	addi	a0,a0,-2
   12f82:	0007d683          	lhu	a3,0(a5)
   12f86:	17f9                	addi	a5,a5,-2
   12f88:	0709                	addi	a4,a4,2
   12f8a:	fed71f23          	sh	a3,-2(a4)
   12f8e:	fef51ae3          	bne	a0,a5,12f82 <emovi+0x32>
   12f92:	00059c23          	sh	zero,24(a1)
   12f96:	8082                	ret
   12f98:	01255603          	lhu	a2,18(a0)
   12f9c:	8e75                	and	a2,a2,a3
   12f9e:	00d61b63          	bne	a2,a3,12fb4 <emovi+0x64>
   12fa2:	01250813          	addi	a6,a0,18
   12fa6:	86aa                	mv	a3,a0
   12fa8:	0006d603          	lhu	a2,0(a3)
   12fac:	0689                	addi	a3,a3,2
   12fae:	ea11                	bnez	a2,12fc2 <emovi+0x72>
   12fb0:	ff069ce3          	bne	a3,a6,12fa8 <emovi+0x58>
   12fb4:	05e9                	addi	a1,a1,26
   12fb6:	0709                	addi	a4,a4,2
   12fb8:	fe071f23          	sh	zero,-2(a4)
   12fbc:	fee59de3          	bne	a1,a4,12fb6 <emovi+0x66>
   12fc0:	8082                	ret
   12fc2:	00658713          	addi	a4,a1,6
   12fc6:	00059223          	sh	zero,4(a1)
   12fca:	1571                	addi	a0,a0,-4
   12fcc:	0007d683          	lhu	a3,0(a5)
   12fd0:	17f9                	addi	a5,a5,-2
   12fd2:	0709                	addi	a4,a4,2
   12fd4:	fed71f23          	sh	a3,-2(a4)
   12fd8:	fea79ae3          	bne	a5,a0,12fcc <emovi+0x7c>
   12fdc:	8082                	ret

00012fde <ecmp>:
   12fde:	01255783          	lhu	a5,18(a0)
   12fe2:	715d                	addi	sp,sp,-80
   12fe4:	c4a2                	sw	s0,72(sp)
   12fe6:	fff7c793          	not	a5,a5
   12fea:	c686                	sw	ra,76(sp)
   12fec:	01179713          	slli	a4,a5,0x11
   12ff0:	842e                	mv	s0,a1
   12ff2:	eb11                	bnez	a4,13006 <ecmp+0x28>
   12ff4:	01250693          	addi	a3,a0,18
   12ff8:	87aa                	mv	a5,a0
   12ffa:	0007d703          	lhu	a4,0(a5)
   12ffe:	0789                	addi	a5,a5,2
   13000:	e735                	bnez	a4,1306c <ecmp+0x8e>
   13002:	fed79ce3          	bne	a5,a3,12ffa <ecmp+0x1c>
   13006:	01245783          	lhu	a5,18(s0)
   1300a:	fff7c793          	not	a5,a5
   1300e:	01179713          	slli	a4,a5,0x11
   13012:	c321                	beqz	a4,13052 <ecmp+0x74>
   13014:	002c                	addi	a1,sp,8
   13016:	3f2d                	jal	12f50 <emovi>
   13018:	104c                	addi	a1,sp,36
   1301a:	8522                	mv	a0,s0
   1301c:	3f15                	jal	12f50 <emovi>
   1301e:	00815583          	lhu	a1,8(sp)
   13022:	02415503          	lhu	a0,36(sp)
   13026:	04b50863          	beq	a0,a1,13076 <ecmp+0x98>
   1302a:	00a10793          	addi	a5,sp,10
   1302e:	02610713          	addi	a4,sp,38
   13032:	1010                	addi	a2,sp,32
   13034:	0007d683          	lhu	a3,0(a5)
   13038:	0789                	addi	a5,a5,2
   1303a:	eeb5                	bnez	a3,130b6 <ecmp+0xd8>
   1303c:	00075683          	lhu	a3,0(a4)
   13040:	0709                	addi	a4,a4,2
   13042:	eab5                	bnez	a3,130b6 <ecmp+0xd8>
   13044:	fef618e3          	bne	a2,a5,13034 <ecmp+0x56>
   13048:	4501                	li	a0,0
   1304a:	40b6                	lw	ra,76(sp)
   1304c:	4426                	lw	s0,72(sp)
   1304e:	6161                	addi	sp,sp,80
   13050:	8082                	ret
   13052:	87a2                	mv	a5,s0
   13054:	0007d703          	lhu	a4,0(a5)
   13058:	01240693          	addi	a3,s0,18
   1305c:	0789                	addi	a5,a5,2
   1305e:	e719                	bnez	a4,1306c <ecmp+0x8e>
   13060:	fad78ae3          	beq	a5,a3,13014 <ecmp+0x36>
   13064:	0007d703          	lhu	a4,0(a5)
   13068:	0789                	addi	a5,a5,2
   1306a:	db7d                	beqz	a4,13060 <ecmp+0x82>
   1306c:	40b6                	lw	ra,76(sp)
   1306e:	4426                	lw	s0,72(sp)
   13070:	5579                	li	a0,-2
   13072:	6161                	addi	sp,sp,80
   13074:	8082                	ret
   13076:	00a15603          	lhu	a2,10(sp)
   1307a:	02615683          	lhu	a3,38(sp)
   1307e:	00153513          	seqz	a0,a0
   13082:	00a10713          	addi	a4,sp,10
   13086:	02610793          	addi	a5,sp,38
   1308a:	0506                	slli	a0,a0,0x1
   1308c:	157d                	addi	a0,a0,-1
   1308e:	186c                	addi	a1,sp,60
   13090:	0789                	addi	a5,a5,2
   13092:	0709                	addi	a4,a4,2
   13094:	00d61c63          	bne	a2,a3,130ac <ecmp+0xce>
   13098:	fab788e3          	beq	a5,a1,13048 <ecmp+0x6a>
   1309c:	00075603          	lhu	a2,0(a4)
   130a0:	0007d683          	lhu	a3,0(a5)
   130a4:	0709                	addi	a4,a4,2
   130a6:	0789                	addi	a5,a5,2
   130a8:	fed608e3          	beq	a2,a3,13098 <ecmp+0xba>
   130ac:	f8c6efe3          	bltu	a3,a2,1304a <ecmp+0x6c>
   130b0:	40a00533          	neg	a0,a0
   130b4:	bf59                	j	1304a <ecmp+0x6c>
   130b6:	4505                	li	a0,1
   130b8:	d9c9                	beqz	a1,1304a <ecmp+0x6c>
   130ba:	557d                	li	a0,-1
   130bc:	b779                	j	1304a <ecmp+0x6c>

000130be <emdnorm>:
   130be:	7179                	addi	sp,sp,-48
   130c0:	d422                	sw	s0,40(sp)
   130c2:	d04a                	sw	s2,32(sp)
   130c4:	ce4e                	sw	s3,28(sp)
   130c6:	cc52                	sw	s4,24(sp)
   130c8:	ca56                	sw	s5,20(sp)
   130ca:	c65e                	sw	s7,12(sp)
   130cc:	893e                	mv	s2,a5
   130ce:	8bb6                	mv	s7,a3
   130d0:	d606                	sw	ra,44(sp)
   130d2:	d226                	sw	s1,36(sp)
   130d4:	c85a                	sw	s6,16(sp)
   130d6:	842a                	mv	s0,a0
   130d8:	89ae                	mv	s3,a1
   130da:	8a32                	mv	s4,a2
   130dc:	8aba                	mv	s5,a4
   130de:	3939                	jal	12cfc <enormlz>
   130e0:	09000793          	li	a5,144
   130e4:	40ab8bb3          	sub	s7,s7,a0
   130e8:	10a7d563          	bge	a5,a0,131f2 <emdnorm+0x134>
   130ec:	67a1                	lui	a5,0x8
   130ee:	17f9                	addi	a5,a5,-2
   130f0:	1f77d663          	bge	a5,s7,132dc <emdnorm+0x21e>
   130f4:	1c0a8463          	beqz	s5,132bc <emdnorm+0x1fe>
   130f8:	00492a83          	lw	s5,4(s2)
   130fc:	00092683          	lw	a3,0(s2)
   13100:	01a90713          	addi	a4,s2,26
   13104:	03490793          	addi	a5,s2,52
   13108:	20da8b63          	beq	s5,a3,1331e <emdnorm+0x260>
   1310c:	0709                	addi	a4,a4,2
   1310e:	fe071f23          	sh	zero,-2(a4)
   13112:	fee79de3          	bne	a5,a4,1310c <emdnorm+0x4e>
   13116:	03800793          	li	a5,56
   1311a:	26fa8663          	beq	s5,a5,13386 <emdnorm+0x2c8>
   1311e:	0f57d963          	bge	a5,s5,13210 <emdnorm+0x152>
   13122:	04000793          	li	a5,64
   13126:	20fa8f63          	beq	s5,a5,13344 <emdnorm+0x286>
   1312a:	07100793          	li	a5,113
   1312e:	26fa9663          	bne	s5,a5,1339a <emdnorm+0x2dc>
   13132:	6721                	lui	a4,0x8
   13134:	177d                	addi	a4,a4,-1
   13136:	6591                	lui	a1,0x4
   13138:	4b51                	li	s6,20
   1313a:	44a9                	li	s1,10
   1313c:	67a1                	lui	a5,0x8
   1313e:	4629                	li	a2,10
   13140:	00860693          	addi	a3,a2,8 # 8008 <main-0x806c>
   13144:	0686                	slli	a3,a3,0x1
   13146:	00e91a23          	sh	a4,20(s2)
   1314a:	00992423          	sw	s1,8(s2)
   1314e:	00b91b23          	sh	a1,22(s2)
   13152:	00f91c23          	sh	a5,24(s2)
   13156:	00c92623          	sw	a2,12(s2)
   1315a:	00d90733          	add	a4,s2,a3
   1315e:	00f71523          	sh	a5,10(a4) # 800a <main-0x806a>
   13162:	01592023          	sw	s5,0(s2)
   13166:	9b22                	add	s6,s6,s0
   13168:	1d705263          	blez	s7,1332c <emdnorm+0x26e>
   1316c:	000b5783          	lhu	a5,0(s6)
   13170:	01495703          	lhu	a4,20(s2)
   13174:	08f00693          	li	a3,143
   13178:	00e7f633          	and	a2,a5,a4
   1317c:	0356c863          	blt	a3,s5,131ac <emdnorm+0xee>
   13180:	46ad                	li	a3,11
   13182:	0296c563          	blt	a3,s1,131ac <emdnorm+0xee>
   13186:	00149713          	slli	a4,s1,0x1
   1318a:	9722                	add	a4,a4,s0
   1318c:	01840693          	addi	a3,s0,24
   13190:	00275783          	lhu	a5,2(a4)
   13194:	c399                	beqz	a5,1319a <emdnorm+0xdc>
   13196:	00166613          	ori	a2,a2,1
   1319a:	00071123          	sh	zero,2(a4)
   1319e:	0709                	addi	a4,a4,2
   131a0:	fee698e3          	bne	a3,a4,13190 <emdnorm+0xd2>
   131a4:	000b5783          	lhu	a5,0(s6)
   131a8:	01495703          	lhu	a4,20(s2)
   131ac:	fff74713          	not	a4,a4
   131b0:	8ff9                	and	a5,a5,a4
   131b2:	00fb1023          	sh	a5,0(s6)
   131b6:	01695783          	lhu	a5,22(s2)
   131ba:	00c7f733          	and	a4,a5,a2
   131be:	eb51                	bnez	a4,13252 <emdnorm+0x194>
   131c0:	0d705e63          	blez	s7,1329c <emdnorm+0x1de>
   131c4:	00445783          	lhu	a5,4(s0)
   131c8:	1a079063          	bnez	a5,13368 <emdnorm+0x2aa>
   131cc:	67a1                	lui	a5,0x8
   131ce:	00041c23          	sh	zero,24(s0)
   131d2:	17f9                	addi	a5,a5,-2
   131d4:	0f77c663          	blt	a5,s7,132c0 <emdnorm+0x202>
   131d8:	01741123          	sh	s7,2(s0)
   131dc:	50b2                	lw	ra,44(sp)
   131de:	5422                	lw	s0,40(sp)
   131e0:	5492                	lw	s1,36(sp)
   131e2:	5902                	lw	s2,32(sp)
   131e4:	49f2                	lw	s3,28(sp)
   131e6:	4a62                	lw	s4,24(sp)
   131e8:	4ad2                	lw	s5,20(sp)
   131ea:	4b42                	lw	s6,16(sp)
   131ec:	4bb2                	lw	s7,12(sp)
   131ee:	6145                	addi	sp,sp,48
   131f0:	8082                	ret
   131f2:	100bda63          	bgez	s7,13306 <emdnorm+0x248>
   131f6:	f7000793          	li	a5,-144
   131fa:	0efbda63          	bge	s7,a5,132ee <emdnorm+0x230>
   131fe:	00240793          	addi	a5,s0,2
   13202:	0469                	addi	s0,s0,26
   13204:	0789                	addi	a5,a5,2
   13206:	fe079f23          	sh	zero,-2(a5) # 7ffe <main-0x8076>
   1320a:	fe879de3          	bne	a5,s0,13204 <emdnorm+0x146>
   1320e:	b7f9                	j	131dc <emdnorm+0x11e>
   13210:	47e1                	li	a5,24
   13212:	14fa8163          	beq	s5,a5,13354 <emdnorm+0x296>
   13216:	03500793          	li	a5,53
   1321a:	18fa9063          	bne	s5,a5,1339a <emdnorm+0x2dc>
   1321e:	6785                	lui	a5,0x1
   13220:	7ff00713          	li	a4,2047
   13224:	40000593          	li	a1,1024
   13228:	4b31                	li	s6,12
   1322a:	4499                	li	s1,6
   1322c:	80078793          	addi	a5,a5,-2048 # 800 <main-0xf874>
   13230:	4619                	li	a2,6
   13232:	b739                	j	13140 <emdnorm+0x82>
   13234:	01495703          	lhu	a4,20(s2)
   13238:	000b5603          	lhu	a2,0(s6)
   1323c:	fff74793          	not	a5,a4
   13240:	8ff1                	and	a5,a5,a2
   13242:	00fb1023          	sh	a5,0(s6)
   13246:	01695783          	lhu	a5,22(s2)
   1324a:	8e79                	and	a2,a2,a4
   1324c:	00c7f733          	and	a4,a5,a2
   13250:	cf21                	beqz	a4,132a8 <emdnorm+0x1ea>
   13252:	00c79e63          	bne	a5,a2,1326e <emdnorm+0x1b0>
   13256:	12099563          	bnez	s3,13380 <emdnorm+0x2c2>
   1325a:	00c92783          	lw	a5,12(s2)
   1325e:	01895703          	lhu	a4,24(s2)
   13262:	0786                	slli	a5,a5,0x1
   13264:	97a2                	add	a5,a5,s0
   13266:	0007d783          	lhu	a5,0(a5)
   1326a:	8ff9                	and	a5,a5,a4
   1326c:	dbb1                	beqz	a5,131c0 <emdnorm+0x102>
   1326e:	03290513          	addi	a0,s2,50
   13272:	01840613          	addi	a2,s0,24
   13276:	0971                	addi	s2,s2,28
   13278:	4781                	li	a5,0
   1327a:	00055703          	lhu	a4,0(a0)
   1327e:	00065803          	lhu	a6,0(a2)
   13282:	1679                	addi	a2,a2,-2
   13284:	1579                	addi	a0,a0,-2
   13286:	9742                	add	a4,a4,a6
   13288:	973e                	add	a4,a4,a5
   1328a:	01075793          	srli	a5,a4,0x10
   1328e:	00e61123          	sh	a4,2(a2)
   13292:	8b85                	andi	a5,a5,1
   13294:	fea913e3          	bne	s2,a0,1327a <emdnorm+0x1bc>
   13298:	f37046e3          	bgtz	s7,131c4 <emdnorm+0x106>
   1329c:	09000793          	li	a5,144
   132a0:	00fa8463          	beq	s5,a5,132a8 <emdnorm+0x1ea>
   132a4:	8522                	mv	a0,s0
   132a6:	3a11                	jal	12bba <eshup1>
   132a8:	00445783          	lhu	a5,4(s0)
   132ac:	efd5                	bnez	a5,13368 <emdnorm+0x2aa>
   132ae:	00041c23          	sh	zero,24(s0)
   132b2:	f20bd3e3          	bgez	s7,131d8 <emdnorm+0x11a>
   132b6:	00041123          	sh	zero,2(s0)
   132ba:	b70d                	j	131dc <emdnorm+0x11e>
   132bc:	00041c23          	sh	zero,24(s0)
   132c0:	77e1                	lui	a5,0xffff8
   132c2:	fff7c793          	not	a5,a5
   132c6:	00f41123          	sh	a5,2(s0)
   132ca:	00440793          	addi	a5,s0,4
   132ce:	0461                	addi	s0,s0,24
   132d0:	00079023          	sh	zero,0(a5) # ffff8000 <__BSS_END__+0xfffd85c8>
   132d4:	0789                	addi	a5,a5,2
   132d6:	fe879de3          	bne	a5,s0,132d0 <emdnorm+0x212>
   132da:	b709                	j	131dc <emdnorm+0x11e>
   132dc:	00240793          	addi	a5,s0,2
   132e0:	0469                	addi	s0,s0,26
   132e2:	0789                	addi	a5,a5,2
   132e4:	fe079f23          	sh	zero,-2(a5)
   132e8:	fef41de3          	bne	s0,a5,132e2 <emdnorm+0x224>
   132ec:	bdc5                	j	131dc <emdnorm+0x11e>
   132ee:	85de                	mv	a1,s7
   132f0:	8522                	mv	a0,s0
   132f2:	3e19                	jal	12e08 <eshift.part.0>
   132f4:	c111                	beqz	a0,132f8 <emdnorm+0x23a>
   132f6:	4985                	li	s3,1
   132f8:	e00a90e3          	bnez	s5,130f8 <emdnorm+0x3a>
   132fc:	00041c23          	sh	zero,24(s0)
   13300:	00041123          	sh	zero,2(s0)
   13304:	bde1                	j	131dc <emdnorm+0x11e>
   13306:	ec0a83e3          	beqz	s5,131cc <emdnorm+0x10e>
   1330a:	00492a83          	lw	s5,4(s2)
   1330e:	00092683          	lw	a3,0(s2)
   13312:	01a90713          	addi	a4,s2,26
   13316:	03490793          	addi	a5,s2,52
   1331a:	deda99e3          	bne	s5,a3,1310c <emdnorm+0x4e>
   1331e:	00892483          	lw	s1,8(s2)
   13322:	00149b13          	slli	s6,s1,0x1
   13326:	9b22                	add	s6,s6,s0
   13328:	e57042e3          	bgtz	s7,1316c <emdnorm+0xae>
   1332c:	09000793          	li	a5,144
   13330:	f0fa82e3          	beq	s5,a5,13234 <emdnorm+0x176>
   13334:	01845783          	lhu	a5,24(s0)
   13338:	8522                	mv	a0,s0
   1333a:	8b85                	andi	a5,a5,1
   1333c:	00f9e9b3          	or	s3,s3,a5
   13340:	380d                	jal	12b72 <eshdn1>
   13342:	b52d                	j	1316c <emdnorm+0xae>
   13344:	6741                	lui	a4,0x10
   13346:	177d                	addi	a4,a4,-1
   13348:	65a1                	lui	a1,0x8
   1334a:	4b39                	li	s6,14
   1334c:	449d                	li	s1,7
   1334e:	4785                	li	a5,1
   13350:	4619                	li	a2,6
   13352:	b3fd                	j	13140 <emdnorm+0x82>
   13354:	0ff00713          	li	a4,255
   13358:	08000593          	li	a1,128
   1335c:	4b21                	li	s6,8
   1335e:	4491                	li	s1,4
   13360:	10000793          	li	a5,256
   13364:	4611                	li	a2,4
   13366:	bbe9                	j	13140 <emdnorm+0x82>
   13368:	8522                	mv	a0,s0
   1336a:	3021                	jal	12b72 <eshdn1>
   1336c:	67a1                	lui	a5,0x8
   1336e:	0b85                	addi	s7,s7,1
   13370:	00041c23          	sh	zero,24(s0)
   13374:	17f9                	addi	a5,a5,-2
   13376:	f577c5e3          	blt	a5,s7,132c0 <emdnorm+0x202>
   1337a:	f20bcee3          	bltz	s7,132b6 <emdnorm+0x1f8>
   1337e:	bda9                	j	131d8 <emdnorm+0x11a>
   13380:	ee0a07e3          	beqz	s4,1326e <emdnorm+0x1b0>
   13384:	bd35                	j	131c0 <emdnorm+0x102>
   13386:	0ff00713          	li	a4,255
   1338a:	08000593          	li	a1,128
   1338e:	4b31                	li	s6,12
   13390:	4499                	li	s1,6
   13392:	10000793          	li	a5,256
   13396:	4619                	li	a2,6
   13398:	b365                	j	13140 <emdnorm+0x82>
   1339a:	6741                	lui	a4,0x10
   1339c:	177d                	addi	a4,a4,-1
   1339e:	65a1                	lui	a1,0x8
   133a0:	4b61                	li	s6,24
   133a2:	44b1                	li	s1,12
   133a4:	4785                	li	a5,1
   133a6:	462d                	li	a2,11
   133a8:	bb61                	j	13140 <emdnorm+0x82>

000133aa <eiremain>:
   133aa:	7179                	addi	sp,sp,-48
   133ac:	d04a                	sw	s2,32(sp)
   133ae:	ce4e                	sw	s3,28(sp)
   133b0:	892e                	mv	s2,a1
   133b2:	00255983          	lhu	s3,2(a0)
   133b6:	d606                	sw	ra,44(sp)
   133b8:	d422                	sw	s0,40(sp)
   133ba:	d226                	sw	s1,36(sp)
   133bc:	cc52                	sw	s4,24(sp)
   133be:	84b2                	mv	s1,a2
   133c0:	c65e                	sw	s7,12(sp)
   133c2:	ca56                	sw	s5,20(sp)
   133c4:	c85a                	sw	s6,16(sp)
   133c6:	c462                	sw	s8,8(sp)
   133c8:	c266                	sw	s9,4(sp)
   133ca:	c06a                	sw	s10,0(sp)
   133cc:	8baa                	mv	s7,a0
   133ce:	323d                	jal	12cfc <enormlz>
   133d0:	00295403          	lhu	s0,2(s2)
   133d4:	87aa                	mv	a5,a0
   133d6:	854a                	mv	a0,s2
   133d8:	40f989b3          	sub	s3,s3,a5
   133dc:	03448a13          	addi	s4,s1,52
   133e0:	3a31                	jal	12cfc <enormlz>
   133e2:	8c09                	sub	s0,s0,a0
   133e4:	04e48713          	addi	a4,s1,78
   133e8:	87d2                	mv	a5,s4
   133ea:	0789                	addi	a5,a5,2
   133ec:	fe079f23          	sh	zero,-2(a5) # 7ffe <main-0x8076>
   133f0:	fee79de3          	bne	a5,a4,133ea <eiremain+0x40>
   133f4:	07344a63          	blt	s0,s3,13468 <eiremain+0xbe>
   133f8:	004b8b13          	addi	s6,s7,4
   133fc:	00490a93          	addi	s5,s2,4
   13400:	01ab8c13          	addi	s8,s7,26
   13404:	00290d13          	addi	s10,s2,2
   13408:	8756                	mv	a4,s5
   1340a:	87da                	mv	a5,s6
   1340c:	0007d603          	lhu	a2,0(a5)
   13410:	00075683          	lhu	a3,0(a4) # 10000 <main-0x74>
   13414:	0789                	addi	a5,a5,2
   13416:	0709                	addi	a4,a4,2
   13418:	06d61c63          	bne	a2,a3,13490 <eiremain+0xe6>
   1341c:	ff8798e3          	bne	a5,s8,1340c <eiremain+0x62>
   13420:	018b8613          	addi	a2,s7,24
   13424:	01890713          	addi	a4,s2,24
   13428:	4681                	li	a3,0
   1342a:	00075783          	lhu	a5,0(a4)
   1342e:	00065583          	lhu	a1,0(a2)
   13432:	1779                	addi	a4,a4,-2
   13434:	8f95                	sub	a5,a5,a3
   13436:	8f8d                	sub	a5,a5,a1
   13438:	0107d693          	srli	a3,a5,0x10
   1343c:	00f71123          	sh	a5,2(a4)
   13440:	8a85                	andi	a3,a3,1
   13442:	1679                	addi	a2,a2,-2
   13444:	feed13e3          	bne	s10,a4,1342a <eiremain+0x80>
   13448:	4c85                	li	s9,1
   1344a:	8552                	mv	a0,s4
   1344c:	f6eff0ef          	jal	ra,12bba <eshup1>
   13450:	04c4d783          	lhu	a5,76(s1)
   13454:	147d                	addi	s0,s0,-1
   13456:	854a                	mv	a0,s2
   13458:	00fce7b3          	or	a5,s9,a5
   1345c:	04f49623          	sh	a5,76(s1)
   13460:	f5aff0ef          	jal	ra,12bba <eshup1>
   13464:	fb3452e3          	bge	s0,s3,13408 <eiremain+0x5e>
   13468:	86a2                	mv	a3,s0
   1346a:	5422                	lw	s0,40(sp)
   1346c:	50b2                	lw	ra,44(sp)
   1346e:	49f2                	lw	s3,28(sp)
   13470:	4a62                	lw	s4,24(sp)
   13472:	4ad2                	lw	s5,20(sp)
   13474:	4b42                	lw	s6,16(sp)
   13476:	4bb2                	lw	s7,12(sp)
   13478:	4c22                	lw	s8,8(sp)
   1347a:	4c92                	lw	s9,4(sp)
   1347c:	4d02                	lw	s10,0(sp)
   1347e:	87a6                	mv	a5,s1
   13480:	854a                	mv	a0,s2
   13482:	5492                	lw	s1,36(sp)
   13484:	5902                	lw	s2,32(sp)
   13486:	4701                	li	a4,0
   13488:	4601                	li	a2,0
   1348a:	4581                	li	a1,0
   1348c:	6145                	addi	sp,sp,48
   1348e:	b905                	j	130be <emdnorm>
   13490:	4c81                	li	s9,0
   13492:	fac6ece3          	bltu	a3,a2,1344a <eiremain+0xa0>
   13496:	b769                	j	13420 <eiremain+0x76>

00013498 <e113toe.isra.0>:
   13498:	7179                	addi	sp,sp,-48
   1349a:	d422                	sw	s0,40(sp)
   1349c:	d606                	sw	ra,44(sp)
   1349e:	842e                	mv	s0,a1
   134a0:	005c                	addi	a5,sp,4
   134a2:	01e10713          	addi	a4,sp,30
   134a6:	0789                	addi	a5,a5,2
   134a8:	fe079f23          	sh	zero,-2(a5)
   134ac:	fee79de3          	bne	a5,a4,134a6 <e113toe.isra.0+0xe>
   134b0:	00e55603          	lhu	a2,14(a0)
   134b4:	67a1                	lui	a5,0x8
   134b6:	17fd                	addi	a5,a5,-1
   134b8:	00f65713          	srli	a4,a2,0xf
   134bc:	40e00733          	neg	a4,a4
   134c0:	00e11223          	sh	a4,4(sp)
   134c4:	8e7d                	and	a2,a2,a5
   134c6:	04f60263          	beq	a2,a5,1350a <e113toe.isra.0+0x72>
   134ca:	00e50793          	addi	a5,a0,14
   134ce:	00c11323          	sh	a2,6(sp)
   134d2:	00a10713          	addi	a4,sp,10
   134d6:	ffe7d683          	lhu	a3,-2(a5) # 7ffe <main-0x8076>
   134da:	17f9                	addi	a5,a5,-2
   134dc:	0709                	addi	a4,a4,2
   134de:	fed71f23          	sh	a3,-2(a4)
   134e2:	fef51ae3          	bne	a0,a5,134d6 <e113toe.isra.0+0x3e>
   134e6:	ea19                	bnez	a2,134fc <e113toe.isra.0+0x64>
   134e8:	00011423          	sh	zero,8(sp)
   134ec:	85a2                	mv	a1,s0
   134ee:	0048                	addi	a0,sp,4
   134f0:	f80ff0ef          	jal	ra,12c70 <emovo.constprop.0>
   134f4:	50b2                	lw	ra,44(sp)
   134f6:	5422                	lw	s0,40(sp)
   134f8:	6145                	addi	sp,sp,48
   134fa:	8082                	ret
   134fc:	4785                	li	a5,1
   134fe:	55fd                	li	a1,-1
   13500:	0048                	addi	a0,sp,4
   13502:	00f11423          	sh	a5,8(sp)
   13506:	3209                	jal	12e08 <eshift.part.0>
   13508:	b7d5                	j	134ec <e113toe.isra.0+0x54>
   1350a:	87aa                	mv	a5,a0
   1350c:	00e50693          	addi	a3,a0,14
   13510:	0007d703          	lhu	a4,0(a5)
   13514:	0789                	addi	a5,a5,2
   13516:	ef21                	bnez	a4,1356e <e113toe.isra.0+0xd6>
   13518:	fef69ce3          	bne	a3,a5,13510 <e113toe.isra.0+0x78>
   1351c:	01440713          	addi	a4,s0,20
   13520:	87a2                	mv	a5,s0
   13522:	0789                	addi	a5,a5,2
   13524:	fe079f23          	sh	zero,-2(a5)
   13528:	fee79de3          	bne	a5,a4,13522 <e113toe.isra.0+0x8a>
   1352c:	01240713          	addi	a4,s0,18
   13530:	87a2                	mv	a5,s0
   13532:	0789                	addi	a5,a5,2
   13534:	fe079f23          	sh	zero,-2(a5)
   13538:	fef71de3          	bne	a4,a5,13532 <e113toe.isra.0+0x9a>
   1353c:	01245783          	lhu	a5,18(s0)
   13540:	66a1                	lui	a3,0x8
   13542:	16fd                	addi	a3,a3,-1
   13544:	8fd5                	or	a5,a5,a3
   13546:	07c2                	slli	a5,a5,0x10
   13548:	83c1                	srli	a5,a5,0x10
   1354a:	00f41923          	sh	a5,18(s0)
   1354e:	00e51683          	lh	a3,14(a0)
   13552:	fa06d1e3          	bgez	a3,134f4 <e113toe.isra.0+0x5c>
   13556:	86a2                	mv	a3,s0
   13558:	0006d603          	lhu	a2,0(a3) # 8000 <main-0x8074>
   1355c:	0689                	addi	a3,a3,2
   1355e:	fa59                	bnez	a2,134f4 <e113toe.isra.0+0x5c>
   13560:	fed71ce3          	bne	a4,a3,13558 <e113toe.isra.0+0xc0>
   13564:	7761                	lui	a4,0xffff8
   13566:	8fb9                	xor	a5,a5,a4
   13568:	00f41923          	sh	a5,18(s0)
   1356c:	b761                	j	134f4 <e113toe.isra.0+0x5c>
   1356e:	01040713          	addi	a4,s0,16
   13572:	87a2                	mv	a5,s0
   13574:	0789                	addi	a5,a5,2
   13576:	fe079f23          	sh	zero,-2(a5)
   1357a:	fee79de3          	bne	a5,a4,13574 <e113toe.isra.0+0xdc>
   1357e:	77f1                	lui	a5,0xffffc
   13580:	00f41823          	sh	a5,16(s0)
   13584:	77e1                	lui	a5,0xffff8
   13586:	fff7c793          	not	a5,a5
   1358a:	00f41923          	sh	a5,18(s0)
   1358e:	b79d                	j	134f4 <e113toe.isra.0+0x5c>

00013590 <ediv>:
   13590:	01255783          	lhu	a5,18(a0)
   13594:	7171                	addi	sp,sp,-176
   13596:	d522                	sw	s0,168(sp)
   13598:	fff7c793          	not	a5,a5
   1359c:	d326                	sw	s1,164(sp)
   1359e:	d14a                	sw	s2,160(sp)
   135a0:	cf4e                	sw	s3,156(sp)
   135a2:	d706                	sw	ra,172(sp)
   135a4:	cd52                	sw	s4,152(sp)
   135a6:	cb56                	sw	s5,148(sp)
   135a8:	c95a                	sw	s6,144(sp)
   135aa:	c75e                	sw	s7,140(sp)
   135ac:	c562                	sw	s8,136(sp)
   135ae:	c366                	sw	s9,132(sp)
   135b0:	c16a                	sw	s10,128(sp)
   135b2:	deee                	sw	s11,124(sp)
   135b4:	01179713          	slli	a4,a5,0x11
   135b8:	84aa                	mv	s1,a0
   135ba:	89ae                	mv	s3,a1
   135bc:	8432                	mv	s0,a2
   135be:	8936                	mv	s2,a3
   135c0:	eb19                	bnez	a4,135d6 <ediv+0x46>
   135c2:	01250693          	addi	a3,a0,18
   135c6:	87aa                	mv	a5,a0
   135c8:	0007d703          	lhu	a4,0(a5) # ffff8000 <__BSS_END__+0xfffd85c8>
   135cc:	0789                	addi	a5,a5,2
   135ce:	22071563          	bnez	a4,137f8 <ediv+0x268>
   135d2:	fed79be3          	bne	a5,a3,135c8 <ediv+0x38>
   135d6:	0129d783          	lhu	a5,18(s3)
   135da:	fff7c793          	not	a5,a5
   135de:	01179713          	slli	a4,a5,0x11
   135e2:	eb19                	bnez	a4,135f8 <ediv+0x68>
   135e4:	01298693          	addi	a3,s3,18
   135e8:	87ce                	mv	a5,s3
   135ea:	0007d703          	lhu	a4,0(a5)
   135ee:	0789                	addi	a5,a5,2
   135f0:	20071f63          	bnez	a4,1380e <ediv+0x27e>
   135f4:	fed79be3          	bne	a5,a3,135ea <ediv+0x5a>
   135f8:	6a79                	lui	s4,0x1e
   135fa:	bd4a0593          	addi	a1,s4,-1068 # 1dbd4 <ezero>
   135fe:	8526                	mv	a0,s1
   13600:	3af9                	jal	12fde <ecmp>
   13602:	22050163          	beqz	a0,13824 <ediv+0x294>
   13606:	0124d603          	lhu	a2,18(s1)
   1360a:	0129d703          	lhu	a4,18(s3)
   1360e:	67a1                	lui	a5,0x8
   13610:	17fd                	addi	a5,a5,-1
   13612:	00f67533          	and	a0,a2,a5
   13616:	00f775b3          	and	a1,a4,a5
   1361a:	06f51a63          	bne	a0,a5,1368e <ediv+0xfe>
   1361e:	01248813          	addi	a6,s1,18
   13622:	87a6                	mv	a5,s1
   13624:	0007d683          	lhu	a3,0(a5) # 8000 <main-0x8074>
   13628:	0789                	addi	a5,a5,2
   1362a:	e2a5                	bnez	a3,1368a <ediv+0xfa>
   1362c:	ff079ce3          	bne	a5,a6,13624 <ediv+0x94>
   13630:	67a1                	lui	a5,0x8
   13632:	17fd                	addi	a5,a5,-1
   13634:	20f59263          	bne	a1,a5,13838 <ediv+0x2a8>
   13638:	01298693          	addi	a3,s3,18
   1363c:	87ce                	mv	a5,s3
   1363e:	0007d583          	lhu	a1,0(a5) # 8000 <main-0x8074>
   13642:	0789                	addi	a5,a5,2
   13644:	34059b63          	bnez	a1,1399a <ediv+0x40a>
   13648:	fed79be3          	bne	a5,a3,1363e <ediv+0xae>
   1364c:	01040713          	addi	a4,s0,16
   13650:	87a2                	mv	a5,s0
   13652:	0789                	addi	a5,a5,2
   13654:	fe079f23          	sh	zero,-2(a5)
   13658:	fee79de3          	bne	a5,a4,13652 <ediv+0xc2>
   1365c:	77f1                	lui	a5,0xffffc
   1365e:	00f41823          	sh	a5,16(s0)
   13662:	77e1                	lui	a5,0xffff8
   13664:	fff7c793          	not	a5,a5
   13668:	00f41923          	sh	a5,18(s0)
   1366c:	50ba                	lw	ra,172(sp)
   1366e:	542a                	lw	s0,168(sp)
   13670:	549a                	lw	s1,164(sp)
   13672:	590a                	lw	s2,160(sp)
   13674:	49fa                	lw	s3,156(sp)
   13676:	4a6a                	lw	s4,152(sp)
   13678:	4ada                	lw	s5,148(sp)
   1367a:	4b4a                	lw	s6,144(sp)
   1367c:	4bba                	lw	s7,140(sp)
   1367e:	4c2a                	lw	s8,136(sp)
   13680:	4c9a                	lw	s9,132(sp)
   13682:	4d0a                	lw	s10,128(sp)
   13684:	5df6                	lw	s11,124(sp)
   13686:	614d                	addi	sp,sp,176
   13688:	8082                	ret
   1368a:	67a1                	lui	a5,0x8
   1368c:	17fd                	addi	a5,a5,-1
   1368e:	1af58d63          	beq	a1,a5,13848 <ediv+0x2b8>
   13692:	8526                	mv	a0,s1
   13694:	086c                	addi	a1,sp,28
   13696:	386d                	jal	12f50 <emovi>
   13698:	182c                	addi	a1,sp,56
   1369a:	854e                	mv	a0,s3
   1369c:	3855                	jal	12f50 <emovi>
   1369e:	03a15a83          	lhu	s5,58(sp)
   136a2:	01e15483          	lhu	s1,30(sp)
   136a6:	200a8663          	beqz	s5,138b2 <ediv+0x322>
   136aa:	c656                	sw	s5,12(sp)
   136ac:	8726                	mv	a4,s1
   136ae:	c426                	sw	s1,8(sp)
   136b0:	101c                	addi	a5,sp,32
   136b2:	1854                	addi	a3,sp,52
   136b4:	ef09                	bnez	a4,136ce <ediv+0x13e>
   136b6:	2ad78b63          	beq	a5,a3,1396c <ediv+0x3dc>
   136ba:	0007d703          	lhu	a4,0(a5) # 8000 <main-0x8074>
   136be:	0789                	addi	a5,a5,2
   136c0:	db7d                	beqz	a4,136b6 <ediv+0x126>
   136c2:	0868                	addi	a0,sp,28
   136c4:	e38ff0ef          	jal	ra,12cfc <enormlz>
   136c8:	40a487b3          	sub	a5,s1,a0
   136cc:	c43e                	sw	a5,8(sp)
   136ce:	5762                	lw	a4,56(sp)
   136d0:	03890a93          	addi	s5,s2,56
   136d4:	87d6                	mv	a5,s5
   136d6:	02e92a23          	sw	a4,52(s2)
   136da:	04e90493          	addi	s1,s2,78
   136de:	0789                	addi	a5,a5,2
   136e0:	fe079f23          	sh	zero,-2(a5)
   136e4:	fef49de3          	bne	s1,a5,136de <ediv+0x14e>
   136e8:	1828                	addi	a0,sp,56
   136ea:	c88ff0ef          	jal	ra,12b72 <eshdn1>
   136ee:	02215b03          	lhu	s6,34(sp)
   136f2:	69c1                	lui	s3,0x10
   136f4:	05010c13          	addi	s8,sp,80
   136f8:	010b1a13          	slli	s4,s6,0x10
   136fc:	416a0a33          	sub	s4,s4,s6
   13700:	03a10c93          	addi	s9,sp,58
   13704:	19fd                	addi	s3,s3,-1
   13706:	06e10d13          	addi	s10,sp,110
   1370a:	05610d93          	addi	s11,sp,86
   1370e:	03c15783          	lhu	a5,60(sp)
   13712:	03e15703          	lhu	a4,62(sp)
   13716:	8bce                	mv	s7,s3
   13718:	07c2                	slli	a5,a5,0x10
   1371a:	97ba                	add	a5,a5,a4
   1371c:	00fa6863          	bltu	s4,a5,1372c <ediv+0x19c>
   13720:	0367d7b3          	divu	a5,a5,s6
   13724:	01079b93          	slli	s7,a5,0x10
   13728:	010bdb93          	srli	s7,s7,0x10
   1372c:	08d0                	addi	a2,sp,84
   1372e:	086c                	addi	a1,sp,28
   13730:	855e                	mv	a0,s7
   13732:	cd6ff0ef          	jal	ra,12c08 <m16m>
   13736:	1878                	addi	a4,sp,60
   13738:	08bc                	addi	a5,sp,88
   1373a:	0007d603          	lhu	a2,0(a5)
   1373e:	00075683          	lhu	a3,0(a4) # ffff8000 <__BSS_END__+0xfffd85c8>
   13742:	0789                	addi	a5,a5,2
   13744:	0709                	addi	a4,a4,2
   13746:	18d61863          	bne	a2,a3,138d6 <ediv+0x346>
   1374a:	ffa798e3          	bne	a5,s10,1373a <ediv+0x1aa>
   1374e:	4781                	li	a5,0
   13750:	10f4                	addi	a3,sp,108
   13752:	8662                	mv	a2,s8
   13754:	00065703          	lhu	a4,0(a2)
   13758:	0006d583          	lhu	a1,0(a3)
   1375c:	1679                	addi	a2,a2,-2
   1375e:	8f1d                	sub	a4,a4,a5
   13760:	8f0d                	sub	a4,a4,a1
   13762:	01075793          	srli	a5,a4,0x10
   13766:	00e61123          	sh	a4,2(a2)
   1376a:	8b85                	andi	a5,a5,1
   1376c:	16f9                	addi	a3,a3,-2
   1376e:	ff9613e3          	bne	a2,s9,13754 <ediv+0x1c4>
   13772:	017a9023          	sh	s7,0(s5)
   13776:	187c                	addi	a5,sp,60
   13778:	0027d703          	lhu	a4,2(a5)
   1377c:	0789                	addi	a5,a5,2
   1377e:	fee79f23          	sh	a4,-2(a5)
   13782:	ff879be3          	bne	a5,s8,13778 <ediv+0x1e8>
   13786:	04011823          	sh	zero,80(sp)
   1378a:	0a89                	addi	s5,s5,2
   1378c:	f95491e3          	bne	s1,s5,1370e <ediv+0x17e>
   13790:	4701                	li	a4,0
   13792:	187c                	addi	a5,sp,60
   13794:	05210613          	addi	a2,sp,82
   13798:	0007d683          	lhu	a3,0(a5)
   1379c:	0789                	addi	a5,a5,2
   1379e:	8f55                	or	a4,a4,a3
   137a0:	fec79ce3          	bne	a5,a2,13798 <ediv+0x208>
   137a4:	00e035b3          	snez	a1,a4
   137a8:	183c                	addi	a5,sp,56
   137aa:	03490713          	addi	a4,s2,52
   137ae:	00075683          	lhu	a3,0(a4)
   137b2:	0789                	addi	a5,a5,2
   137b4:	0709                	addi	a4,a4,2
   137b6:	fed79f23          	sh	a3,-2(a5)
   137ba:	fef61ae3          	bne	a2,a5,137ae <ediv+0x21e>
   137be:	47b2                	lw	a5,12(sp)
   137c0:	4722                	lw	a4,8(sp)
   137c2:	6691                	lui	a3,0x4
   137c4:	16fd                	addi	a3,a3,-1
   137c6:	40e78ab3          	sub	s5,a5,a4
   137ca:	1828                	addi	a0,sp,56
   137cc:	87ca                	mv	a5,s2
   137ce:	04000713          	li	a4,64
   137d2:	96d6                	add	a3,a3,s5
   137d4:	4601                	li	a2,0
   137d6:	30e5                	jal	130be <emdnorm>
   137d8:	03815703          	lhu	a4,56(sp)
   137dc:	01c15783          	lhu	a5,28(sp)
   137e0:	85a2                	mv	a1,s0
   137e2:	1828                	addi	a0,sp,56
   137e4:	8f99                	sub	a5,a5,a4
   137e6:	00f037b3          	snez	a5,a5
   137ea:	40f007b3          	neg	a5,a5
   137ee:	02f11c23          	sh	a5,56(sp)
   137f2:	c7eff0ef          	jal	ra,12c70 <emovo.constprop.0>
   137f6:	bd9d                	j	1366c <ediv+0xdc>
   137f8:	01448713          	addi	a4,s1,20
   137fc:	0004d783          	lhu	a5,0(s1)
   13800:	0489                	addi	s1,s1,2
   13802:	0409                	addi	s0,s0,2
   13804:	fef41f23          	sh	a5,-2(s0)
   13808:	fee49ae3          	bne	s1,a4,137fc <ediv+0x26c>
   1380c:	b585                	j	1366c <ediv+0xdc>
   1380e:	01440713          	addi	a4,s0,20
   13812:	0009d783          	lhu	a5,0(s3) # 10000 <main-0x74>
   13816:	0409                	addi	s0,s0,2
   13818:	0989                	addi	s3,s3,2
   1381a:	fef41f23          	sh	a5,-2(s0)
   1381e:	fee41ae3          	bne	s0,a4,13812 <ediv+0x282>
   13822:	b5a9                	j	1366c <ediv+0xdc>
   13824:	bd4a0593          	addi	a1,s4,-1068
   13828:	854e                	mv	a0,s3
   1382a:	fb4ff0ef          	jal	ra,12fde <ecmp>
   1382e:	dc051ce3          	bnez	a0,13606 <ediv+0x76>
   13832:	bd29                	j	1364c <ediv+0xbc>
   13834:	e4080fe3          	beqz	a6,13692 <ediv+0x102>
   13838:	01440793          	addi	a5,s0,20
   1383c:	0409                	addi	s0,s0,2
   1383e:	fe041f23          	sh	zero,-2(s0)
   13842:	fef41de3          	bne	s0,a5,1383c <ediv+0x2ac>
   13846:	b51d                	j	1366c <ediv+0xdc>
   13848:	4801                	li	a6,0
   1384a:	01298693          	addi	a3,s3,18
   1384e:	87ce                	mv	a5,s3
   13850:	0007d583          	lhu	a1,0(a5)
   13854:	0789                	addi	a5,a5,2
   13856:	fdf9                	bnez	a1,13834 <ediv+0x2a4>
   13858:	fed79ce3          	bne	a5,a3,13850 <ediv+0x2c0>
   1385c:	67a1                	lui	a5,0x8
   1385e:	17fd                	addi	a5,a5,-1
   13860:	04f50063          	beq	a0,a5,138a0 <ediv+0x310>
   13864:	823d                	srli	a2,a2,0xf
   13866:	0009d783          	lhu	a5,0(s3)
   1386a:	0989                	addi	s3,s3,2
   1386c:	12079363          	bnez	a5,13992 <ediv+0x402>
   13870:	fed99be3          	bne	s3,a3,13866 <ediv+0x2d6>
   13874:	00f75793          	srli	a5,a4,0xf
   13878:	8fb1                	xor	a5,a5,a2
   1387a:	07be                	slli	a5,a5,0xf
   1387c:	00f41923          	sh	a5,18(s0)
   13880:	01240713          	addi	a4,s0,18
   13884:	87a2                	mv	a5,s0
   13886:	0789                	addi	a5,a5,2
   13888:	fe079f23          	sh	zero,-2(a5) # 7ffe <main-0x8076>
   1388c:	fee79de3          	bne	a5,a4,13886 <ediv+0x2f6>
   13890:	01245783          	lhu	a5,18(s0)
   13894:	6721                	lui	a4,0x8
   13896:	177d                	addi	a4,a4,-1
   13898:	8fd9                	or	a5,a5,a4
   1389a:	00f41923          	sh	a5,18(s0)
   1389e:	b3f9                	j	1366c <ediv+0xdc>
   138a0:	01248593          	addi	a1,s1,18
   138a4:	0004d783          	lhu	a5,0(s1)
   138a8:	0489                	addi	s1,s1,2
   138aa:	e7f5                	bnez	a5,13996 <ediv+0x406>
   138ac:	feb49ce3          	bne	s1,a1,138a4 <ediv+0x314>
   138b0:	bf55                	j	13864 <ediv+0x2d4>
   138b2:	187c                	addi	a5,sp,60
   138b4:	05010c13          	addi	s8,sp,80
   138b8:	0afc0263          	beq	s8,a5,1395c <ediv+0x3cc>
   138bc:	0007d703          	lhu	a4,0(a5)
   138c0:	0789                	addi	a5,a5,2
   138c2:	db7d                	beqz	a4,138b8 <ediv+0x328>
   138c4:	1828                	addi	a0,sp,56
   138c6:	c36ff0ef          	jal	ra,12cfc <enormlz>
   138ca:	40a007b3          	neg	a5,a0
   138ce:	01e15703          	lhu	a4,30(sp)
   138d2:	c63e                	sw	a5,12(sp)
   138d4:	bbe9                	j	136ae <ediv+0x11e>
   138d6:	e6c6fce3          	bgeu	a3,a2,1374e <ediv+0x1be>
   138da:	fffb8793          	addi	a5,s7,-1
   138de:	01079893          	slli	a7,a5,0x10
   138e2:	0108d893          	srli	a7,a7,0x10
   138e6:	4681                	li	a3,0
   138e8:	1850                	addi	a2,sp,52
   138ea:	10f8                	addi	a4,sp,108
   138ec:	00075783          	lhu	a5,0(a4) # 8000 <main-0x8074>
   138f0:	00065583          	lhu	a1,0(a2)
   138f4:	1779                	addi	a4,a4,-2
   138f6:	8f95                	sub	a5,a5,a3
   138f8:	8f8d                	sub	a5,a5,a1
   138fa:	0107d693          	srli	a3,a5,0x10
   138fe:	00f71123          	sh	a5,2(a4)
   13902:	8a85                	andi	a3,a3,1
   13904:	1679                	addi	a2,a2,-2
   13906:	ffb713e3          	bne	a4,s11,138ec <ediv+0x35c>
   1390a:	1878                	addi	a4,sp,60
   1390c:	08bc                	addi	a5,sp,88
   1390e:	0007d603          	lhu	a2,0(a5)
   13912:	00075683          	lhu	a3,0(a4)
   13916:	0789                	addi	a5,a5,2
   13918:	0709                	addi	a4,a4,2
   1391a:	00d61663          	bne	a2,a3,13926 <ediv+0x396>
   1391e:	ffa798e3          	bne	a5,s10,1390e <ediv+0x37e>
   13922:	8bc6                	mv	s7,a7
   13924:	b52d                	j	1374e <ediv+0x1be>
   13926:	fec6fee3          	bgeu	a3,a2,13922 <ediv+0x392>
   1392a:	ffeb8513          	addi	a0,s7,-2
   1392e:	01051b93          	slli	s7,a0,0x10
   13932:	010bdb93          	srli	s7,s7,0x10
   13936:	4681                	li	a3,0
   13938:	1850                	addi	a2,sp,52
   1393a:	10f8                	addi	a4,sp,108
   1393c:	00075783          	lhu	a5,0(a4)
   13940:	00065583          	lhu	a1,0(a2)
   13944:	1779                	addi	a4,a4,-2
   13946:	8f95                	sub	a5,a5,a3
   13948:	8f8d                	sub	a5,a5,a1
   1394a:	0107d693          	srli	a3,a5,0x10
   1394e:	00f71123          	sh	a5,2(a4)
   13952:	8a85                	andi	a3,a3,1
   13954:	1679                	addi	a2,a2,-2
   13956:	ffb713e3          	bne	a4,s11,1393c <ediv+0x3ac>
   1395a:	bbd5                	j	1374e <ediv+0x1be>
   1395c:	01440793          	addi	a5,s0,20
   13960:	0409                	addi	s0,s0,2
   13962:	fe041f23          	sh	zero,-2(s0)
   13966:	fef41de3          	bne	s0,a5,13960 <ediv+0x3d0>
   1396a:	b309                	j	1366c <ediv+0xdc>
   1396c:	01c15683          	lhu	a3,28(sp)
   13970:	03815603          	lhu	a2,56(sp)
   13974:	01240713          	addi	a4,s0,18
   13978:	87a2                	mv	a5,s0
   1397a:	8e91                	sub	a3,a3,a2
   1397c:	00d036b3          	snez	a3,a3
   13980:	06be                	slli	a3,a3,0xf
   13982:	00d41923          	sh	a3,18(s0)
   13986:	0789                	addi	a5,a5,2
   13988:	fe079f23          	sh	zero,-2(a5)
   1398c:	fef71de3          	bne	a4,a5,13986 <ediv+0x3f6>
   13990:	b701                	j	13890 <ediv+0x300>
   13992:	4781                	li	a5,0
   13994:	b5d5                	j	13878 <ediv+0x2e8>
   13996:	4601                	li	a2,0
   13998:	b5f9                	j	13866 <ediv+0x2d6>
   1399a:	4805                	li	a6,1
   1399c:	bd4d                	j	1384e <ediv+0x2be>

0001399e <emul>:
   1399e:	7175                	addi	sp,sp,-144
   139a0:	c326                	sw	s1,132(sp)
   139a2:	84aa                	mv	s1,a0
   139a4:	01255503          	lhu	a0,18(a0)
   139a8:	6721                	lui	a4,0x8
   139aa:	177d                	addi	a4,a4,-1
   139ac:	c522                	sw	s0,136(sp)
   139ae:	c14a                	sw	s2,128(sp)
   139b0:	dcd2                	sw	s4,120(sp)
   139b2:	c706                	sw	ra,140(sp)
   139b4:	dece                	sw	s3,124(sp)
   139b6:	dad6                	sw	s5,116(sp)
   139b8:	d8da                	sw	s6,112(sp)
   139ba:	d6de                	sw	s7,108(sp)
   139bc:	d4e2                	sw	s8,104(sp)
   139be:	d2e6                	sw	s9,100(sp)
   139c0:	00e57833          	and	a6,a0,a4
   139c4:	892e                	mv	s2,a1
   139c6:	8432                	mv	s0,a2
   139c8:	8a36                	mv	s4,a3
   139ca:	00e81c63          	bne	a6,a4,139e2 <emul+0x44>
   139ce:	01248993          	addi	s3,s1,18
   139d2:	8726                	mv	a4,s1
   139d4:	00075603          	lhu	a2,0(a4) # 8000 <main-0x8074>
   139d8:	0709                	addi	a4,a4,2
   139da:	16061a63          	bnez	a2,13b4e <emul+0x1b0>
   139de:	ff371be3          	bne	a4,s3,139d4 <emul+0x36>
   139e2:	01295603          	lhu	a2,18(s2)
   139e6:	67a1                	lui	a5,0x8
   139e8:	17fd                	addi	a5,a5,-1
   139ea:	00f675b3          	and	a1,a2,a5
   139ee:	06f58c63          	beq	a1,a5,13a66 <emul+0xc8>
   139f2:	16f81963          	bne	a6,a5,13b64 <emul+0x1c6>
   139f6:	01248993          	addi	s3,s1,18
   139fa:	87a6                	mv	a5,s1
   139fc:	0007d703          	lhu	a4,0(a5) # 8000 <main-0x8074>
   13a00:	0789                	addi	a5,a5,2
   13a02:	1c071a63          	bnez	a4,13bd6 <emul+0x238>
   13a06:	fef99be3          	bne	s3,a5,139fc <emul+0x5e>
   13a0a:	65f9                	lui	a1,0x1e
   13a0c:	bd458593          	addi	a1,a1,-1068 # 1dbd4 <ezero>
   13a10:	854a                	mv	a0,s2
   13a12:	dccff0ef          	jal	ra,12fde <ecmp>
   13a16:	18050f63          	beqz	a0,13bb4 <emul+0x216>
   13a1a:	01295603          	lhu	a2,18(s2)
   13a1e:	67a1                	lui	a5,0x8
   13a20:	17fd                	addi	a5,a5,-1
   13a22:	00f675b3          	and	a1,a2,a5
   13a26:	1af58c63          	beq	a1,a5,13bde <emul+0x240>
   13a2a:	0124d503          	lhu	a0,18(s1)
   13a2e:	00f57733          	and	a4,a0,a5
   13a32:	12f71963          	bne	a4,a5,13b64 <emul+0x1c6>
   13a36:	87a6                	mv	a5,s1
   13a38:	0007d703          	lhu	a4,0(a5) # 8000 <main-0x8074>
   13a3c:	0789                	addi	a5,a5,2
   13a3e:	2c071663          	bnez	a4,13d0a <emul+0x36c>
   13a42:	fef99be3          	bne	s3,a5,13a38 <emul+0x9a>
   13a46:	0004d783          	lhu	a5,0(s1)
   13a4a:	0489                	addi	s1,s1,2
   13a4c:	28079b63          	bnez	a5,13ce2 <emul+0x344>
   13a50:	ff349be3          	bne	s1,s3,13a46 <emul+0xa8>
   13a54:	00f55713          	srli	a4,a0,0xf
   13a58:	67a1                	lui	a5,0x8
   13a5a:	17fd                	addi	a5,a5,-1
   13a5c:	08f59b63          	bne	a1,a5,13af2 <emul+0x154>
   13a60:	01290693          	addi	a3,s2,18
   13a64:	a041                	j	13ae4 <emul+0x146>
   13a66:	01290693          	addi	a3,s2,18
   13a6a:	874a                	mv	a4,s2
   13a6c:	00075783          	lhu	a5,0(a4)
   13a70:	0709                	addi	a4,a4,2
   13a72:	12079663          	bnez	a5,13b9e <emul+0x200>
   13a76:	fee69be3          	bne	a3,a4,13a6c <emul+0xce>
   13a7a:	67a1                	lui	a5,0x8
   13a7c:	17fd                	addi	a5,a5,-1
   13a7e:	f6f80ce3          	beq	a6,a5,139f6 <emul+0x58>
   13a82:	87ca                	mv	a5,s2
   13a84:	0007d703          	lhu	a4,0(a5) # 8000 <main-0x8074>
   13a88:	0789                	addi	a5,a5,2
   13a8a:	e755                	bnez	a4,13b36 <emul+0x198>
   13a8c:	fef69ce3          	bne	a3,a5,13a84 <emul+0xe6>
   13a90:	65f9                	lui	a1,0x1e
   13a92:	bd458593          	addi	a1,a1,-1068 # 1dbd4 <ezero>
   13a96:	8526                	mv	a0,s1
